
vvvf.elf:     file format elf32-littlearm


Disassembly of section .program_ptr:

00000000 <prog_ptr>:
   0:	00000000 	andeq	r0, r0, r0

Disassembly of section .init_fun:

00000004 <init>:
   4:	b573      	push	{r0, r1, r4, r5, r6, lr}
   6:	4b23      	ldr	r3, [pc, #140]	; (94 <init+0x90>)
   8:	4c21      	ldr	r4, [pc, #132]	; (90 <init+0x8c>)
   a:	4605      	mov	r5, r0
   c:	4822      	ldr	r0, [pc, #136]	; (98 <init+0x94>)
   e:	447b      	add	r3, pc
  10:	4478      	add	r0, pc
  12:	681b      	ldr	r3, [r3, #0]
  14:	9001      	str	r0, [sp, #4]
  16:	f001 fdbf 	bl	1b98 <InitializeConfiguration>
  1a:	9801      	ldr	r0, [sp, #4]
  1c:	f001 ffca 	bl	1fb4 <PrintInverterConfig>
  20:	4b1e      	ldr	r3, [pc, #120]	; (9c <init+0x98>)
  22:	491f      	ldr	r1, [pc, #124]	; (a0 <init+0x9c>)
  24:	481f      	ldr	r0, [pc, #124]	; (a4 <init+0xa0>)
  26:	447b      	add	r3, pc
  28:	2600      	movs	r6, #0
  2a:	711e      	strb	r6, [r3, #4]
  2c:	4b1e      	ldr	r3, [pc, #120]	; (a8 <init+0xa4>)
  2e:	447b      	add	r3, pc
  30:	4479      	add	r1, pc
  32:	711e      	strb	r6, [r3, #4]
  34:	4478      	add	r0, pc
  36:	6823      	ldr	r3, [r4, #0]
  38:	4798      	blx	r3
  3a:	491c      	ldr	r1, [pc, #112]	; (ac <init+0xa8>)
  3c:	481c      	ldr	r0, [pc, #112]	; (b0 <init+0xac>)
  3e:	6823      	ldr	r3, [r4, #0]
  40:	4479      	add	r1, pc
  42:	4478      	add	r0, pc
  44:	4798      	blx	r3
  46:	491b      	ldr	r1, [pc, #108]	; (b4 <init+0xb0>)
  48:	481b      	ldr	r0, [pc, #108]	; (b8 <init+0xb4>)
  4a:	6823      	ldr	r3, [r4, #0]
  4c:	4479      	add	r1, pc
  4e:	4478      	add	r0, pc
  50:	4798      	blx	r3
  52:	491a      	ldr	r1, [pc, #104]	; (bc <init+0xb8>)
  54:	481a      	ldr	r0, [pc, #104]	; (c0 <init+0xbc>)
  56:	6823      	ldr	r3, [r4, #0]
  58:	4479      	add	r1, pc
  5a:	4478      	add	r0, pc
  5c:	4798      	blx	r3
  5e:	4919      	ldr	r1, [pc, #100]	; (c4 <init+0xc0>)
  60:	4819      	ldr	r0, [pc, #100]	; (c8 <init+0xc4>)
  62:	6823      	ldr	r3, [r4, #0]
  64:	4479      	add	r1, pc
  66:	4478      	add	r0, pc
  68:	4798      	blx	r3
  6a:	4918      	ldr	r1, [pc, #96]	; (cc <init+0xc8>)
  6c:	4818      	ldr	r0, [pc, #96]	; (d0 <init+0xcc>)
  6e:	6823      	ldr	r3, [r4, #0]
  70:	4479      	add	r1, pc
  72:	4478      	add	r0, pc
  74:	4798      	blx	r3
  76:	4b17      	ldr	r3, [pc, #92]	; (d4 <init+0xd0>)
  78:	4817      	ldr	r0, [pc, #92]	; (d8 <init+0xd4>)
  7a:	447b      	add	r3, pc
  7c:	e9c5 3600 	strd	r3, r6, [r5]
  80:	4478      	add	r0, pc
  82:	f8d4 30b4 	ldr.w	r3, [r4, #180]	; 0xb4
  86:	4798      	blx	r3
  88:	2001      	movs	r0, #1
  8a:	b002      	add	sp, #8
  8c:	bd70      	pop	{r4, r5, r6, pc}
  8e:	bf00      	nop
  90:	1000f800 	andne	pc, r0, r0, lsl #16
  94:	ffffffee 			; <UNDEFINED> instruction: 0xffffffee
  98:	00000104 	andeq	r0, r0, r4, lsl #2
  9c:	000004e2 	andeq	r0, r0, r2, ror #9
  a0:	00001205 	andeq	r1, r0, r5, lsl #4
  a4:	00000cc8 	andeq	r0, r0, r8, asr #25
  a8:	00000526 	andeq	r0, r0, r6, lsr #10
  ac:	000012d1 	ldrdeq	r1, [r0], -r1	; <UNPREDICTABLE>
  b0:	00000ccf 	andeq	r0, r0, pc, asr #25
  b4:	00001341 	andeq	r1, r0, r1, asr #6
  b8:	00000cd7 	ldrdeq	r0, [r0], -r7
  bc:	00001919 	andeq	r1, r0, r9, lsl r9
  c0:	00000cd9 	ldrdeq	r0, [r0], -r9
  c4:	00001991 	muleq	r0, r1, r9
  c8:	00000ce3 	andeq	r0, r0, r3, ror #25
  cc:	00001a09 	andeq	r1, r0, r9, lsl #20
  d0:	00000ce8 	andeq	r0, r0, r8, ror #25
  d4:	0000165f 	andeq	r1, r0, pc, asr r6
  d8:	00000cee 	andeq	r0, r0, lr, ror #25

Disassembly of section .data.rotor_state:

000000dc <rotor_state>:
  dc:	Address 0x00000000000000dc is out of bounds.


Disassembly of section .data.lfsr:

000000de <lfsr>:
  de:	Address 0x00000000000000de is out of bounds.


Disassembly of section .bss.ActiveSpeedRange:

000000e0 <ActiveSpeedRange>:
	...

Disassembly of section .bss.Conf:

00000118 <Conf>:
	...

Disassembly of section .bss.active_current_index:

000004a8 <active_current_index>:
 4a8:	00000000 	andeq	r0, r0, r0

Disassembly of section .bss.active_hz_index:

000004ac <active_hz_index>:
 4ac:	00000000 	andeq	r0, r0, r0

Disassembly of section .bss.active_rpm_index:

000004b0 <active_rpm_index>:
 4b0:	00000000 	andeq	r0, r0, r0

Disassembly of section .bss.amplitude:

000004b4 <amplitude>:
 4b4:	00000000 	andeq	r0, r0, r0

Disassembly of section .bss.buffer_ready_for_consumption:

000004b8 <buffer_ready_for_consumption>:
 4b8:	Address 0x00000000000004b8 is out of bounds.


Disassembly of section .bss.buffers:

000004bc <buffers>:
	...

Disassembly of section .bss.consumer_index:

000004c8 <consumer_index>:
 4c8:	00000000 	andeq	r0, r0, r0

Disassembly of section .bss.current_samples:

000004cc <current_samples>:
	...

Disassembly of section .bss.generator:

000004f4 <generator>:
	...

Disassembly of section .bss.generator_thread_data:

0000050c <generator_thread_data>:
	...

Disassembly of section .bss.hz_samples:

00000514 <hz_samples>:
	...

Disassembly of section .bss.inverter_current:

0000053c <inverter_current>:
 53c:	00000000 	andeq	r0, r0, r0

Disassembly of section .bss.inverter_enabled:

00000540 <inverter_enabled>:
 540:	00000000 	andeq	r0, r0, r0

Disassembly of section .bss.inverter_hz:

00000544 <inverter_hz>:
 544:	00000000 	andeq	r0, r0, r0

Disassembly of section .bss.last_samples_comsumed:

00000548 <last_samples_comsumed>:
 548:	00000000 	andeq	r0, r0, r0

Disassembly of section .bss.last_samples_generated:

0000054c <last_samples_generated>:
 54c:	00000000 	andeq	r0, r0, r0

Disassembly of section .bss.last_time:

00000550 <last_time>:
 550:	00000000 	andeq	r0, r0, r0

Disassembly of section .bss.motor_poles:

00000554 <motor_poles>:
 554:	00000000 	andeq	r0, r0, r0

Disassembly of section .bss.playback_thread_data:

00000558 <playback_thread_data>:
	...

Disassembly of section .bss.producer_index:

00000560 <producer_index>:
 560:	00000000 	andeq	r0, r0, r0

Disassembly of section .bss.rpm_samples:

00000564 <rpm_samples>:
	...

Disassembly of section .bss.samples_consumed:

00000578 <samples_consumed>:
 578:	00000000 	andeq	r0, r0, r0

Disassembly of section .bss.samples_generated:

0000057c <samples_generated>:
 57c:	00000000 	andeq	r0, r0, r0

Disassembly of section .bss.lookup_index:

00000580 <lookup_index>:
	...

Disassembly of section .text:

00000590 <__aeabi_drsub>:
     590:	f081 4100 	eor.w	r1, r1, #2147483648	; 0x80000000
     594:	e002      	b.n	59c <__adddf3>
     596:	bf00      	nop

00000598 <__aeabi_dsub>:
     598:	f083 4300 	eor.w	r3, r3, #2147483648	; 0x80000000

0000059c <__adddf3>:
     59c:	b530      	push	{r4, r5, lr}
     59e:	ea4f 0441 	mov.w	r4, r1, lsl #1
     5a2:	ea4f 0543 	mov.w	r5, r3, lsl #1
     5a6:	ea94 0f05 	teq	r4, r5
     5aa:	bf08      	it	eq
     5ac:	ea90 0f02 	teqeq	r0, r2
     5b0:	bf1f      	itttt	ne
     5b2:	ea54 0c00 	orrsne.w	ip, r4, r0
     5b6:	ea55 0c02 	orrsne.w	ip, r5, r2
     5ba:	ea7f 5c64 	mvnsne.w	ip, r4, asr #21
     5be:	ea7f 5c65 	mvnsne.w	ip, r5, asr #21
     5c2:	f000 80e2 	beq.w	78a <__adddf3+0x1ee>
     5c6:	ea4f 5454 	mov.w	r4, r4, lsr #21
     5ca:	ebd4 5555 	rsbs	r5, r4, r5, lsr #21
     5ce:	bfb8      	it	lt
     5d0:	426d      	neglt	r5, r5
     5d2:	dd0c      	ble.n	5ee <__adddf3+0x52>
     5d4:	442c      	add	r4, r5
     5d6:	ea80 0202 	eor.w	r2, r0, r2
     5da:	ea81 0303 	eor.w	r3, r1, r3
     5de:	ea82 0000 	eor.w	r0, r2, r0
     5e2:	ea83 0101 	eor.w	r1, r3, r1
     5e6:	ea80 0202 	eor.w	r2, r0, r2
     5ea:	ea81 0303 	eor.w	r3, r1, r3
     5ee:	2d36      	cmp	r5, #54	; 0x36
     5f0:	bf88      	it	hi
     5f2:	bd30      	pophi	{r4, r5, pc}
     5f4:	f011 4f00 	tst.w	r1, #2147483648	; 0x80000000
     5f8:	ea4f 3101 	mov.w	r1, r1, lsl #12
     5fc:	f44f 1c80 	mov.w	ip, #1048576	; 0x100000
     600:	ea4c 3111 	orr.w	r1, ip, r1, lsr #12
     604:	d002      	beq.n	60c <__adddf3+0x70>
     606:	4240      	negs	r0, r0
     608:	eb61 0141 	sbc.w	r1, r1, r1, lsl #1
     60c:	f013 4f00 	tst.w	r3, #2147483648	; 0x80000000
     610:	ea4f 3303 	mov.w	r3, r3, lsl #12
     614:	ea4c 3313 	orr.w	r3, ip, r3, lsr #12
     618:	d002      	beq.n	620 <__adddf3+0x84>
     61a:	4252      	negs	r2, r2
     61c:	eb63 0343 	sbc.w	r3, r3, r3, lsl #1
     620:	ea94 0f05 	teq	r4, r5
     624:	f000 80a7 	beq.w	776 <__adddf3+0x1da>
     628:	f1a4 0401 	sub.w	r4, r4, #1
     62c:	f1d5 0e20 	rsbs	lr, r5, #32
     630:	db0d      	blt.n	64e <__adddf3+0xb2>
     632:	fa02 fc0e 	lsl.w	ip, r2, lr
     636:	fa22 f205 	lsr.w	r2, r2, r5
     63a:	1880      	adds	r0, r0, r2
     63c:	f141 0100 	adc.w	r1, r1, #0
     640:	fa03 f20e 	lsl.w	r2, r3, lr
     644:	1880      	adds	r0, r0, r2
     646:	fa43 f305 	asr.w	r3, r3, r5
     64a:	4159      	adcs	r1, r3
     64c:	e00e      	b.n	66c <__adddf3+0xd0>
     64e:	f1a5 0520 	sub.w	r5, r5, #32
     652:	f10e 0e20 	add.w	lr, lr, #32
     656:	2a01      	cmp	r2, #1
     658:	fa03 fc0e 	lsl.w	ip, r3, lr
     65c:	bf28      	it	cs
     65e:	f04c 0c02 	orrcs.w	ip, ip, #2
     662:	fa43 f305 	asr.w	r3, r3, r5
     666:	18c0      	adds	r0, r0, r3
     668:	eb51 71e3 	adcs.w	r1, r1, r3, asr #31
     66c:	f001 4500 	and.w	r5, r1, #2147483648	; 0x80000000
     670:	d507      	bpl.n	682 <__adddf3+0xe6>
     672:	f04f 0e00 	mov.w	lr, #0
     676:	f1dc 0c00 	rsbs	ip, ip, #0
     67a:	eb7e 0000 	sbcs.w	r0, lr, r0
     67e:	eb6e 0101 	sbc.w	r1, lr, r1
     682:	f5b1 1f80 	cmp.w	r1, #1048576	; 0x100000
     686:	d31b      	bcc.n	6c0 <__adddf3+0x124>
     688:	f5b1 1f00 	cmp.w	r1, #2097152	; 0x200000
     68c:	d30c      	bcc.n	6a8 <__adddf3+0x10c>
     68e:	0849      	lsrs	r1, r1, #1
     690:	ea5f 0030 	movs.w	r0, r0, rrx
     694:	ea4f 0c3c 	mov.w	ip, ip, rrx
     698:	f104 0401 	add.w	r4, r4, #1
     69c:	ea4f 5244 	mov.w	r2, r4, lsl #21
     6a0:	f512 0f80 	cmn.w	r2, #4194304	; 0x400000
     6a4:	f080 809a 	bcs.w	7dc <__adddf3+0x240>
     6a8:	f1bc 4f00 	cmp.w	ip, #2147483648	; 0x80000000
     6ac:	bf08      	it	eq
     6ae:	ea5f 0c50 	movseq.w	ip, r0, lsr #1
     6b2:	f150 0000 	adcs.w	r0, r0, #0
     6b6:	eb41 5104 	adc.w	r1, r1, r4, lsl #20
     6ba:	ea41 0105 	orr.w	r1, r1, r5
     6be:	bd30      	pop	{r4, r5, pc}
     6c0:	ea5f 0c4c 	movs.w	ip, ip, lsl #1
     6c4:	4140      	adcs	r0, r0
     6c6:	eb41 0101 	adc.w	r1, r1, r1
     6ca:	3c01      	subs	r4, #1
     6cc:	bf28      	it	cs
     6ce:	f5b1 1f80 	cmpcs.w	r1, #1048576	; 0x100000
     6d2:	d2e9      	bcs.n	6a8 <__adddf3+0x10c>
     6d4:	f091 0f00 	teq	r1, #0
     6d8:	bf04      	itt	eq
     6da:	4601      	moveq	r1, r0
     6dc:	2000      	moveq	r0, #0
     6de:	fab1 f381 	clz	r3, r1
     6e2:	bf08      	it	eq
     6e4:	3320      	addeq	r3, #32
     6e6:	f1a3 030b 	sub.w	r3, r3, #11
     6ea:	f1b3 0220 	subs.w	r2, r3, #32
     6ee:	da0c      	bge.n	70a <__adddf3+0x16e>
     6f0:	320c      	adds	r2, #12
     6f2:	dd08      	ble.n	706 <__adddf3+0x16a>
     6f4:	f102 0c14 	add.w	ip, r2, #20
     6f8:	f1c2 020c 	rsb	r2, r2, #12
     6fc:	fa01 f00c 	lsl.w	r0, r1, ip
     700:	fa21 f102 	lsr.w	r1, r1, r2
     704:	e00c      	b.n	720 <__adddf3+0x184>
     706:	f102 0214 	add.w	r2, r2, #20
     70a:	bfd8      	it	le
     70c:	f1c2 0c20 	rsble	ip, r2, #32
     710:	fa01 f102 	lsl.w	r1, r1, r2
     714:	fa20 fc0c 	lsr.w	ip, r0, ip
     718:	bfdc      	itt	le
     71a:	ea41 010c 	orrle.w	r1, r1, ip
     71e:	4090      	lslle	r0, r2
     720:	1ae4      	subs	r4, r4, r3
     722:	bfa2      	ittt	ge
     724:	eb01 5104 	addge.w	r1, r1, r4, lsl #20
     728:	4329      	orrge	r1, r5
     72a:	bd30      	popge	{r4, r5, pc}
     72c:	ea6f 0404 	mvn.w	r4, r4
     730:	3c1f      	subs	r4, #31
     732:	da1c      	bge.n	76e <__adddf3+0x1d2>
     734:	340c      	adds	r4, #12
     736:	dc0e      	bgt.n	756 <__adddf3+0x1ba>
     738:	f104 0414 	add.w	r4, r4, #20
     73c:	f1c4 0220 	rsb	r2, r4, #32
     740:	fa20 f004 	lsr.w	r0, r0, r4
     744:	fa01 f302 	lsl.w	r3, r1, r2
     748:	ea40 0003 	orr.w	r0, r0, r3
     74c:	fa21 f304 	lsr.w	r3, r1, r4
     750:	ea45 0103 	orr.w	r1, r5, r3
     754:	bd30      	pop	{r4, r5, pc}
     756:	f1c4 040c 	rsb	r4, r4, #12
     75a:	f1c4 0220 	rsb	r2, r4, #32
     75e:	fa20 f002 	lsr.w	r0, r0, r2
     762:	fa01 f304 	lsl.w	r3, r1, r4
     766:	ea40 0003 	orr.w	r0, r0, r3
     76a:	4629      	mov	r1, r5
     76c:	bd30      	pop	{r4, r5, pc}
     76e:	fa21 f004 	lsr.w	r0, r1, r4
     772:	4629      	mov	r1, r5
     774:	bd30      	pop	{r4, r5, pc}
     776:	f094 0f00 	teq	r4, #0
     77a:	f483 1380 	eor.w	r3, r3, #1048576	; 0x100000
     77e:	bf06      	itte	eq
     780:	f481 1180 	eoreq.w	r1, r1, #1048576	; 0x100000
     784:	3401      	addeq	r4, #1
     786:	3d01      	subne	r5, #1
     788:	e74e      	b.n	628 <__adddf3+0x8c>
     78a:	ea7f 5c64 	mvns.w	ip, r4, asr #21
     78e:	bf18      	it	ne
     790:	ea7f 5c65 	mvnsne.w	ip, r5, asr #21
     794:	d029      	beq.n	7ea <__adddf3+0x24e>
     796:	ea94 0f05 	teq	r4, r5
     79a:	bf08      	it	eq
     79c:	ea90 0f02 	teqeq	r0, r2
     7a0:	d005      	beq.n	7ae <__adddf3+0x212>
     7a2:	ea54 0c00 	orrs.w	ip, r4, r0
     7a6:	bf04      	itt	eq
     7a8:	4619      	moveq	r1, r3
     7aa:	4610      	moveq	r0, r2
     7ac:	bd30      	pop	{r4, r5, pc}
     7ae:	ea91 0f03 	teq	r1, r3
     7b2:	bf1e      	ittt	ne
     7b4:	2100      	movne	r1, #0
     7b6:	2000      	movne	r0, #0
     7b8:	bd30      	popne	{r4, r5, pc}
     7ba:	ea5f 5c54 	movs.w	ip, r4, lsr #21
     7be:	d105      	bne.n	7cc <__adddf3+0x230>
     7c0:	0040      	lsls	r0, r0, #1
     7c2:	4149      	adcs	r1, r1
     7c4:	bf28      	it	cs
     7c6:	f041 4100 	orrcs.w	r1, r1, #2147483648	; 0x80000000
     7ca:	bd30      	pop	{r4, r5, pc}
     7cc:	f514 0480 	adds.w	r4, r4, #4194304	; 0x400000
     7d0:	bf3c      	itt	cc
     7d2:	f501 1180 	addcc.w	r1, r1, #1048576	; 0x100000
     7d6:	bd30      	popcc	{r4, r5, pc}
     7d8:	f001 4500 	and.w	r5, r1, #2147483648	; 0x80000000
     7dc:	f045 41fe 	orr.w	r1, r5, #2130706432	; 0x7f000000
     7e0:	f441 0170 	orr.w	r1, r1, #15728640	; 0xf00000
     7e4:	f04f 0000 	mov.w	r0, #0
     7e8:	bd30      	pop	{r4, r5, pc}
     7ea:	ea7f 5c64 	mvns.w	ip, r4, asr #21
     7ee:	bf1a      	itte	ne
     7f0:	4619      	movne	r1, r3
     7f2:	4610      	movne	r0, r2
     7f4:	ea7f 5c65 	mvnseq.w	ip, r5, asr #21
     7f8:	bf1c      	itt	ne
     7fa:	460b      	movne	r3, r1
     7fc:	4602      	movne	r2, r0
     7fe:	ea50 3401 	orrs.w	r4, r0, r1, lsl #12
     802:	bf06      	itte	eq
     804:	ea52 3503 	orrseq.w	r5, r2, r3, lsl #12
     808:	ea91 0f03 	teqeq	r1, r3
     80c:	f441 2100 	orrne.w	r1, r1, #524288	; 0x80000
     810:	bd30      	pop	{r4, r5, pc}
     812:	bf00      	nop

00000814 <__aeabi_ui2d>:
     814:	f090 0f00 	teq	r0, #0
     818:	bf04      	itt	eq
     81a:	2100      	moveq	r1, #0
     81c:	4770      	bxeq	lr
     81e:	b530      	push	{r4, r5, lr}
     820:	f44f 6480 	mov.w	r4, #1024	; 0x400
     824:	f104 0432 	add.w	r4, r4, #50	; 0x32
     828:	f04f 0500 	mov.w	r5, #0
     82c:	f04f 0100 	mov.w	r1, #0
     830:	e750      	b.n	6d4 <__adddf3+0x138>
     832:	bf00      	nop

00000834 <__aeabi_i2d>:
     834:	f090 0f00 	teq	r0, #0
     838:	bf04      	itt	eq
     83a:	2100      	moveq	r1, #0
     83c:	4770      	bxeq	lr
     83e:	b530      	push	{r4, r5, lr}
     840:	f44f 6480 	mov.w	r4, #1024	; 0x400
     844:	f104 0432 	add.w	r4, r4, #50	; 0x32
     848:	f010 4500 	ands.w	r5, r0, #2147483648	; 0x80000000
     84c:	bf48      	it	mi
     84e:	4240      	negmi	r0, r0
     850:	f04f 0100 	mov.w	r1, #0
     854:	e73e      	b.n	6d4 <__adddf3+0x138>
     856:	bf00      	nop

00000858 <__aeabi_f2d>:
     858:	0042      	lsls	r2, r0, #1
     85a:	ea4f 01e2 	mov.w	r1, r2, asr #3
     85e:	ea4f 0131 	mov.w	r1, r1, rrx
     862:	ea4f 7002 	mov.w	r0, r2, lsl #28
     866:	bf1f      	itttt	ne
     868:	f012 437f 	andsne.w	r3, r2, #4278190080	; 0xff000000
     86c:	f093 4f7f 	teqne	r3, #4278190080	; 0xff000000
     870:	f081 5160 	eorne.w	r1, r1, #939524096	; 0x38000000
     874:	4770      	bxne	lr
     876:	f032 427f 	bics.w	r2, r2, #4278190080	; 0xff000000
     87a:	bf08      	it	eq
     87c:	4770      	bxeq	lr
     87e:	f093 4f7f 	teq	r3, #4278190080	; 0xff000000
     882:	bf04      	itt	eq
     884:	f441 2100 	orreq.w	r1, r1, #524288	; 0x80000
     888:	4770      	bxeq	lr
     88a:	b530      	push	{r4, r5, lr}
     88c:	f44f 7460 	mov.w	r4, #896	; 0x380
     890:	f001 4500 	and.w	r5, r1, #2147483648	; 0x80000000
     894:	f021 4100 	bic.w	r1, r1, #2147483648	; 0x80000000
     898:	e71c      	b.n	6d4 <__adddf3+0x138>
     89a:	bf00      	nop

0000089c <__aeabi_ul2d>:
     89c:	ea50 0201 	orrs.w	r2, r0, r1
     8a0:	bf08      	it	eq
     8a2:	4770      	bxeq	lr
     8a4:	b530      	push	{r4, r5, lr}
     8a6:	f04f 0500 	mov.w	r5, #0
     8aa:	e00a      	b.n	8c2 <__aeabi_l2d+0x16>

000008ac <__aeabi_l2d>:
     8ac:	ea50 0201 	orrs.w	r2, r0, r1
     8b0:	bf08      	it	eq
     8b2:	4770      	bxeq	lr
     8b4:	b530      	push	{r4, r5, lr}
     8b6:	f011 4500 	ands.w	r5, r1, #2147483648	; 0x80000000
     8ba:	d502      	bpl.n	8c2 <__aeabi_l2d+0x16>
     8bc:	4240      	negs	r0, r0
     8be:	eb61 0141 	sbc.w	r1, r1, r1, lsl #1
     8c2:	f44f 6480 	mov.w	r4, #1024	; 0x400
     8c6:	f104 0432 	add.w	r4, r4, #50	; 0x32
     8ca:	ea5f 5c91 	movs.w	ip, r1, lsr #22
     8ce:	f43f aed8 	beq.w	682 <__adddf3+0xe6>
     8d2:	f04f 0203 	mov.w	r2, #3
     8d6:	ea5f 0cdc 	movs.w	ip, ip, lsr #3
     8da:	bf18      	it	ne
     8dc:	3203      	addne	r2, #3
     8de:	ea5f 0cdc 	movs.w	ip, ip, lsr #3
     8e2:	bf18      	it	ne
     8e4:	3203      	addne	r2, #3
     8e6:	eb02 02dc 	add.w	r2, r2, ip, lsr #3
     8ea:	f1c2 0320 	rsb	r3, r2, #32
     8ee:	fa00 fc03 	lsl.w	ip, r0, r3
     8f2:	fa20 f002 	lsr.w	r0, r0, r2
     8f6:	fa01 fe03 	lsl.w	lr, r1, r3
     8fa:	ea40 000e 	orr.w	r0, r0, lr
     8fe:	fa21 f102 	lsr.w	r1, r1, r2
     902:	4414      	add	r4, r2
     904:	e6bd      	b.n	682 <__adddf3+0xe6>
     906:	bf00      	nop
	...

00000910 <memset>:
     910:	0783      	lsls	r3, r0, #30
     912:	b530      	push	{r4, r5, lr}
     914:	d048      	beq.n	9a8 <memset+0x98>
     916:	1e54      	subs	r4, r2, #1
     918:	2a00      	cmp	r2, #0
     91a:	d03f      	beq.n	99c <memset+0x8c>
     91c:	b2ca      	uxtb	r2, r1
     91e:	4603      	mov	r3, r0
     920:	e001      	b.n	926 <memset+0x16>
     922:	3c01      	subs	r4, #1
     924:	d33a      	bcc.n	99c <memset+0x8c>
     926:	f803 2b01 	strb.w	r2, [r3], #1
     92a:	079d      	lsls	r5, r3, #30
     92c:	d1f9      	bne.n	922 <memset+0x12>
     92e:	2c03      	cmp	r4, #3
     930:	d92d      	bls.n	98e <memset+0x7e>
     932:	b2cd      	uxtb	r5, r1
     934:	ea45 2505 	orr.w	r5, r5, r5, lsl #8
     938:	2c0f      	cmp	r4, #15
     93a:	ea45 4505 	orr.w	r5, r5, r5, lsl #16
     93e:	d936      	bls.n	9ae <memset+0x9e>
     940:	f1a4 0210 	sub.w	r2, r4, #16
     944:	f022 0c0f 	bic.w	ip, r2, #15
     948:	f103 0e20 	add.w	lr, r3, #32
     94c:	44e6      	add	lr, ip
     94e:	ea4f 1c12 	mov.w	ip, r2, lsr #4
     952:	f103 0210 	add.w	r2, r3, #16
     956:	e942 5504 	strd	r5, r5, [r2, #-16]
     95a:	e942 5502 	strd	r5, r5, [r2, #-8]
     95e:	3210      	adds	r2, #16
     960:	4572      	cmp	r2, lr
     962:	d1f8      	bne.n	956 <memset+0x46>
     964:	f10c 0201 	add.w	r2, ip, #1
     968:	f014 0f0c 	tst.w	r4, #12
     96c:	eb03 1202 	add.w	r2, r3, r2, lsl #4
     970:	f004 0c0f 	and.w	ip, r4, #15
     974:	d013      	beq.n	99e <memset+0x8e>
     976:	f1ac 0304 	sub.w	r3, ip, #4
     97a:	f023 0303 	bic.w	r3, r3, #3
     97e:	3304      	adds	r3, #4
     980:	4413      	add	r3, r2
     982:	f842 5b04 	str.w	r5, [r2], #4
     986:	4293      	cmp	r3, r2
     988:	d1fb      	bne.n	982 <memset+0x72>
     98a:	f00c 0403 	and.w	r4, ip, #3
     98e:	b12c      	cbz	r4, 99c <memset+0x8c>
     990:	b2ca      	uxtb	r2, r1
     992:	441c      	add	r4, r3
     994:	f803 2b01 	strb.w	r2, [r3], #1
     998:	429c      	cmp	r4, r3
     99a:	d1fb      	bne.n	994 <memset+0x84>
     99c:	bd30      	pop	{r4, r5, pc}
     99e:	4664      	mov	r4, ip
     9a0:	4613      	mov	r3, r2
     9a2:	2c00      	cmp	r4, #0
     9a4:	d1f4      	bne.n	990 <memset+0x80>
     9a6:	e7f9      	b.n	99c <memset+0x8c>
     9a8:	4603      	mov	r3, r0
     9aa:	4614      	mov	r4, r2
     9ac:	e7bf      	b.n	92e <memset+0x1e>
     9ae:	461a      	mov	r2, r3
     9b0:	46a4      	mov	ip, r4
     9b2:	e7e0      	b.n	976 <memset+0x66>
	...
     9c0:	5252455b 	subspl	r4, r2, #381681664	; 0x16c00000
     9c4:	205d524f 	subscs	r5, sp, pc, asr #4
     9c8:	79616c50 	stmdbvc	r1!, {r4, r6, sl, fp, sp, lr}^
     9cc:	6b636162 	blvs	18d8f5c <SPWMGenerator_GenerateSamples+0x18d6ddc>
     9d0:	72685420 	rsbvc	r5, r8, #32, 8	; 0x20000000
     9d4:	20646165 	rsbcs	r6, r4, r5, ror #2
     9d8:	72617453 	rsbvc	r7, r1, #1392508928	; 0x53000000
     9dc:	20646576 	rsbcs	r6, r4, r6, ror r5
     9e0:	20726f46 	rsbscs	r6, r2, r6, asr #30
     9e4:	706d6153 	rsbvc	r6, sp, r3, asr r1
     9e8:	4220656c 	eormi	r6, r0, #108, 10	; 0x1b000000
     9ec:	65666675 	strbvs	r6, [r6, #-1653]!	; 0xfffff98b
     9f0:	0a217372 	beq	85d7c0 <SPWMGenerator_GenerateSamples+0x85b640>
     9f4:	616c5000 	cmnvs	ip, r0
     9f8:	63616279 	cmnvs	r1, #-1879048185	; 0x90000007
     9fc:	6f6c206b 	svcvs	0x006c206b
     a00:	7420706f 	strtvc	r7, [r0], #-111	; 0xffffff91
     a04:	61657268 	cmnvs	r5, r8, ror #4
     a08:	65742064 	ldrbvs	r2, [r4, #-100]!	; 0xffffff9c
     a0c:	6e696d72 	mcrvs	13, 3, r6, cr9, cr2, {3}
     a10:	64657461 	strbtvs	r7, [r5], #-1121	; 0xfffffb9f
     a14:	00000a2e 	andeq	r0, r0, lr, lsr #20
	...
     a20:	6c696146 	stfvse	f6, [r9], #-280	; 0xfffffee8
     a24:	74206465 	strtvc	r6, [r0], #-1125	; 0xfffffb9b
     a28:	6c61206f 	stclvs	0, cr2, [r1], #-444	; 0xfffffe44
     a2c:	61636f6c 	cmnvs	r3, ip, ror #30
     a30:	62206574 	eorvs	r6, r0, #116, 10	; 0x1d000000
     a34:	65666675 	strbvs	r6, [r6, #-1653]!	; 0xfffff98b
     a38:	64252072 	strtvs	r2, [r5], #-114	; 0xffffff8e
     a3c:	6567000a 	strbvs	r0, [r7, #-10]!
     a40:	6172656e 	cmnvs	r2, lr, ror #10
     a44:	5f726f74 	svcpl	0x00726f74
     a48:	706f6f6c 	rsbvc	r6, pc, ip, ror #30
     a4c:	616c7000 	cmnvs	ip, r0
     a50:	63616279 	cmnvs	r1, #-1879048185	; 0x90000007
     a54:	6f6c5f6b 	svcvs	0x006c5f6b
     a58:	4700706f 	strmi	r7, [r0, -pc, rrx]
     a5c:	72656e65 	rsbvc	r6, r5, #1616	; 0x650
     a60:	726f7461 	rsbvc	r7, pc, #1627389952	; 0x61000000
     a64:	646e6120 	strbtvs	r6, [lr], #-288	; 0xfffffee0
     a68:	616c7020 	cmnvs	ip, r0, lsr #32
     a6c:	63616279 	cmnvs	r1, #-1879048185	; 0x90000007
     a70:	6874206b 	ldmdavs	r4!, {r0, r1, r3, r5, r6, sp}^
     a74:	64616572 	strbtvs	r6, [r1], #-1394	; 0xfffffa8e
     a78:	74732073 	ldrbtvc	r2, [r3], #-115	; 0xffffff8d
     a7c:	65747261 	ldrbvs	r7, [r4, #-609]!	; 0xfffffd9f
     a80:	000a2e64 	andeq	r2, sl, r4, ror #28
     a84:	656e6547 	strbvs	r6, [lr, #-1351]!	; 0xfffffab9
     a88:	6f746172 	svcvs	0x00746172
     a8c:	6e612072 	mcrvs	0, 3, r2, cr1, cr2, {3}
     a90:	6c702064 	ldclvs	0, cr2, [r0], #-400	; 0xfffffe70
     a94:	61627961 	cmnvs	r2, r1, ror #18
     a98:	74206b63 	strtvc	r6, [r0], #-2915	; 0xfffff49d
     a9c:	61657268 	cmnvs	r5, r8, ror #4
     aa0:	61207364 			; <UNDEFINED> instruction: 0x61207364
     aa4:	61206572 			; <UNDEFINED> instruction: 0x61206572
     aa8:	6165726c 	cmnvs	r5, ip, ror #4
     aac:	72207964 	eorvc	r7, r0, #100, 18	; 0x190000
     ab0:	696e6e75 	stmdbvs	lr!, {r0, r2, r4, r5, r6, r9, sl, fp, sp, lr}^
     ab4:	0a2e676e 	beq	b9a874 <SPWMGenerator_GenerateSamples+0xb986f4>
	...
     ac0:	656e6547 	strbvs	r6, [lr, #-1351]!	; 0xfffffab9
     ac4:	6f746172 	svcvs	0x00746172
     ac8:	6e612072 	mcrvs	0, 3, r2, cr1, cr2, {3}
     acc:	6c702064 	ldclvs	0, cr2, [r0], #-400	; 0xfffffe70
     ad0:	61627961 	cmnvs	r2, r1, ror #18
     ad4:	74206b63 	strtvc	r6, [r0], #-2915	; 0xfffff49d
     ad8:	61657268 	cmnvs	r5, r8, ror #4
     adc:	73207364 			; <UNDEFINED> instruction: 0x73207364
     ae0:	70706f74 	rsbsvc	r6, r0, r4, ror pc
     ae4:	0a2e6465 	beq	b99c80 <SPWMGenerator_GenerateSamples+0xb97b00>
     ae8:	6e654700 	cdpvs	7, 6, cr4, cr5, cr0, {0}
     aec:	74617265 	strbtvc	r7, [r1], #-613	; 0xfffffd9b
     af0:	6120726f 			; <UNDEFINED> instruction: 0x6120726f
     af4:	7020646e 	eorvc	r6, r0, lr, ror #8
     af8:	6279616c 	rsbsvs	r6, r9, #108, 2
     afc:	206b6361 	rsbcs	r6, fp, r1, ror #6
     b00:	65726874 	ldrbvs	r6, [r2, #-2164]!	; 0xfffff78c
     b04:	20736461 	rsbscs	r6, r3, r1, ror #8
     b08:	20657261 	rsbcs	r7, r5, r1, ror #4
     b0c:	20746f6e 	rsbscs	r6, r4, lr, ror #30
     b10:	6e6e7572 	mcrvs	5, 3, r7, cr14, cr2, {3}
     b14:	2e676e69 	cdpcs	14, 6, cr6, cr7, cr9, {3}
     b18:	0000000a 	andeq	r0, r0, sl
     b1c:	00000000 	andeq	r0, r0, r0
     b20:	73616f43 	cmnvc	r1, #268	; 0x10c
     b24:	676e6974 			; <UNDEFINED> instruction: 0x676e6974
     b28:	63654400 	cmnvs	r5, #0, 8
     b2c:	72656c65 	rsbvc	r6, r5, #25856	; 0x6500
     b30:	6e697461 	cdpvs	4, 6, cr7, cr9, cr1, {3}
     b34:	6e550067 	cdpvs	0, 5, cr0, cr5, cr7, {3}
     b38:	776f6e6b 	strbvc	r6, [pc, -fp, ror #28]!
     b3c:	6341006e 	movtvs	r0, #4206	; 0x106e
     b40:	656c6563 	strbvs	r6, [ip, #-1379]!	; 0xfffffa9d
     b44:	69746172 	ldmdbvs	r4!, {r1, r4, r5, r6, r8, sp, lr}^
     b48:	4400676e 	strmi	r6, [r0], #-1902	; 0xfffff892
     b4c:	62617369 	rsbvs	r7, r1, #-1543503871	; 0xa4000001
     b50:	0064656c 	rsbeq	r6, r4, ip, ror #10
     b54:	706d6152 	rsbvc	r6, sp, r2, asr r1
     b58:	79734120 	ldmdbvc	r3!, {r5, r8, lr}^
     b5c:	5200636e 	andpl	r6, r0, #-1207959551	; 0xb8000001
     b60:	6f646e61 	svcvs	0x00646e61
     b64:	5053206d 	subspl	r2, r3, sp, rrx
     b68:	53004d57 	movwpl	r4, #3415	; 0xd57
     b6c:	68636e79 	stmdavs	r3!, {r0, r3, r4, r5, r6, r9, sl, fp, sp, lr}^
     b70:	6f6e6f72 	svcvs	0x006e6f72
     b74:	46007375 			; <UNDEFINED> instruction: 0x46007375
     b78:	64657869 	strbtvs	r7, [r5], #-2153	; 0xfffff797
     b7c:	79734120 	ldmdbvc	r3!, {r5, r8, lr}^
     b80:	5700636e 	strpl	r6, [r0, -lr, ror #6]
     b84:	494e5241 	stmdbmi	lr, {r0, r6, r9, ip, lr}^
     b88:	203a474e 	eorscs	r4, sl, lr, asr #14
     b8c:	706d6153 	rsbvc	r6, sp, r3, asr r1
     b90:	7220656c 	eorvc	r6, r0, #108, 10	; 0x1b000000
     b94:	20657461 	rsbcs	r7, r5, r1, ror #8
     b98:	206f6f74 	rsbcs	r6, pc, r4, ror pc	; <UNPREDICTABLE>
     b9c:	68676968 	stmdavs	r7!, {r3, r5, r6, r8, fp, sp, lr}^
     ba0:	63412021 	movtvs	r2, #4129	; 0x1021
     ba4:	6c617574 	cfstr64vs	mvdx7, [r1], #-464	; 0xfffffe30
     ba8:	2e25203a 	mcrcs	0, 1, r2, cr5, cr10, {1}
     bac:	202c6631 	eorcs	r6, ip, r1, lsr r6
     bb0:	65707845 	ldrbvs	r7, [r0, #-2117]!	; 0xfffff7bb
     bb4:	64657463 	strbtvs	r7, [r5], #-1123	; 0xfffffb9d
     bb8:	2e25203a 	mcrcs	0, 1, r2, cr5, cr10, {1}
     bbc:	000a6631 	andeq	r6, sl, r1, lsr r6
     bc0:	6e654728 	cdpvs	7, 6, cr4, cr5, cr8, {1}
     bc4:	74617265 	strbtvc	r7, [r1], #-613	; 0xfffffd9b
     bc8:	73206465 			; <UNDEFINED> instruction: 0x73206465
     bcc:	6c706d61 	ldclvs	13, cr6, [r0], #-388	; 0xfffffe7c
     bd0:	732f7365 			; <UNDEFINED> instruction: 0x732f7365
     bd4:	2e25203a 	mcrcs	0, 1, r2, cr5, cr10, {1}
     bd8:	20296631 	eorcs	r6, r9, r1, lsr r6
     bdc:	6e6f4328 	cdpvs	3, 6, cr4, cr15, cr8, {1}
     be0:	656d7573 	strbvs	r7, [sp, #-1395]!	; 0xfffffa8d
     be4:	61732064 	cmnvs	r3, r4, rrx
     be8:	656c706d 	strbvs	r7, [ip, #-109]!	; 0xffffff93
     bec:	3a732f73 	bcc	1ccc9c0 <SPWMGenerator_GenerateSamples+0x1cca840>
     bf0:	312e2520 			; <UNDEFINED> instruction: 0x312e2520
     bf4:	000a2966 	andeq	r2, sl, r6, ror #18
     bf8:	72727543 	rsbsvc	r7, r2, #281018368	; 0x10c00000
     bfc:	20746e65 	rsbscs	r6, r4, r5, ror #28
     c00:	65657053 	strbvs	r7, [r5, #-83]!	; 0xffffffad
     c04:	25203a64 	strcs	r3, [r0, #-2660]!	; 0xfffff59c
     c08:	2066312e 	rsbcs	r3, r6, lr, lsr #2
     c0c:	682f6d6b 	stmdavs	pc!, {r0, r1, r3, r5, r6, r8, sl, fp, sp, lr}	; <UNPREDICTABLE>
     c10:	6341000a 	movtvs	r0, #4106	; 0x100a
     c14:	65766974 	ldrbvs	r6, [r6, #-2420]!	; 0xfffff68c
     c18:	65705320 	ldrbvs	r5, [r0, #-800]!	; 0xfffffce0
     c1c:	52206465 	eorpl	r6, r0, #1694498816	; 0x65000000
     c20:	65676e61 	strbvs	r6, [r7, #-3681]!	; 0xfffff19f
     c24:	6625203a 			; <UNDEFINED> instruction: 0x6625203a
     c28:	2f6d6b20 	svccs	0x006d6b20
     c2c:	6f742068 	svcvs	0x00742068
     c30:	20662520 	rsbcs	r2, r6, r0, lsr #10
     c34:	682f6d6b 	stmdavs	pc!, {r0, r1, r3, r5, r6, r8, sl, fp, sp, lr}	; <UNPREDICTABLE>
     c38:	6f52000a 	svcvs	0x0052000a
     c3c:	20726f74 	rsbscs	r6, r2, r4, ror pc
     c40:	74617453 	strbtvc	r7, [r1], #-1107	; 0xfffffbad
     c44:	25203a65 	strcs	r3, [r0, #-2661]!	; 0xfffff59b
     c48:	53000a73 	movwpl	r0, #2675	; 0xa73
     c4c:	204d5750 	subcs	r5, sp, r0, asr r7
     c50:	65646f4d 	strbvs	r6, [r4, #-3917]!	; 0xfffff0b3
     c54:	7325203a 			; <UNDEFINED> instruction: 0x7325203a
     c58:	6143202c 	cmpvs	r3, ip, lsr #32
     c5c:	65697272 	strbvs	r7, [r9, #-626]!	; 0xfffffd8e
     c60:	72462072 	subvc	r2, r6, #114	; 0x72
     c64:	65757165 	ldrbvs	r7, [r5, #-357]!	; 0xfffffe9b
     c68:	3a79636e 	bcc	1e59a28 <SPWMGenerator_GenerateSamples+0x1e578a8>
     c6c:	312e2520 			; <UNDEFINED> instruction: 0x312e2520
     c70:	2c7a4866 	ldclcs	8, cr4, [sl], #-408	; 0xfffffe68
     c74:	706d4120 	rsbvc	r4, sp, r0, lsr #2
     c78:	7574696c 	ldrbvc	r6, [r4, #-2412]!	; 0xfffff694
     c7c:	25206564 	strcs	r6, [r0, #-1380]!	; 0xfffffa9c
     c80:	5666332e 	strbtpl	r3, [r6], -lr, lsr #6
     c84:	0000000a 	andeq	r0, r0, sl
	...
     c90:	656e6547 	strbvs	r6, [lr, #-1351]!	; 0xfffffab9
     c94:	6f746172 	svcvs	0x00746172
     c98:	6f6c2072 	svcvs	0x006c2072
     c9c:	7420706f 	strtvc	r7, [r0], #-111	; 0xffffff91
     ca0:	61657268 	cmnvs	r5, r8, ror #4
     ca4:	65742064 	ldrbvs	r2, [r4, #-100]!	; 0xffffff9c
     ca8:	6e696d72 	mcrvs	13, 3, r6, cr9, cr2, {3}
     cac:	64657461 	strbtvs	r7, [r5], #-1121	; 0xfffffb9f
     cb0:	00000a2e 	andeq	r0, r0, lr, lsr #20
	...
     cc0:	656e6547 	strbvs	r6, [lr, #-1351]!	; 0xfffffab9
     cc4:	6f746172 	svcvs	0x00746172
     cc8:	6e612072 	mcrvs	0, 3, r2, cr1, cr2, {3}
     ccc:	6c702064 	ldclvs	0, cr2, [r0], #-400	; 0xfffffe70
     cd0:	61627961 	cmnvs	r2, r1, ror #18
     cd4:	74206b63 	strtvc	r6, [r0], #-2915	; 0xfffff49d
     cd8:	61657268 	cmnvs	r5, r8, ror #4
     cdc:	74207364 	strtvc	r7, [r0], #-868	; 0xfffffc9c
     ce0:	696d7265 	stmdbvs	sp!, {r0, r2, r5, r6, r9, ip, sp, lr}^
     ce4:	6574616e 	ldrbvs	r6, [r4, #-366]!	; 0xfffffe92
     ce8:	6e692064 	cdpvs	0, 6, cr2, cr9, cr4, {3}
     cec:	6f747320 	svcvs	0x00747320
     cf0:	75662070 	strbvc	r2, [r6, #-112]!	; 0xffffff90
     cf4:	6974636e 	ldmdbvs	r4!, {r1, r2, r3, r5, r6, r8, r9, sp, lr}^
     cf8:	0a2e6e6f 	beq	b9c6bc <SPWMGenerator_GenerateSamples+0xb9a53c>
     cfc:	00000000 	andeq	r0, r0, r0
     d00:	2d747865 	ldclcs	8, cr7, [r4, #-404]!	; 0xfffffe6c
     d04:	72617473 	rsbvc	r7, r1, #1929379840	; 0x73000000
     d08:	75612d74 	strbvc	r2, [r1, #-3444]!	; 0xfffff28c
     d0c:	2d6f6964 			; <UNDEFINED> instruction: 0x2d6f6964
     d10:	706f6f6c 	rsbvc	r6, pc, ip, ror #30
     d14:	74786500 	ldrbtvc	r6, [r8], #-1280	; 0xfffffb00
     d18:	6f74732d 	svcvs	0x0074732d
     d1c:	75612d70 	strbvc	r2, [r1, #-3440]!	; 0xfffff290
     d20:	2d6f6964 			; <UNDEFINED> instruction: 0x2d6f6964
     d24:	706f6f6c 	rsbvc	r6, pc, ip, ror #30
     d28:	74786500 	ldrbtvc	r6, [r8], #-1280	; 0xfffffb00
     d2c:	7465672d 	strbtvc	r6, [r5], #-1837	; 0xfffff8d3
     d30:	6174732d 	cmnvs	r4, sp, lsr #6
     d34:	65007374 	strvs	r7, [r0, #-884]	; 0xfffffc8c
     d38:	732d7478 			; <UNDEFINED> instruction: 0x732d7478
     d3c:	6d2d7465 	cfstrsvs	mvf7, [sp, #-404]!	; 0xfffffe6c
     d40:	726f746f 	rsbvc	r7, pc, #1862270976	; 0x6f000000
     d44:	7275632d 	rsbsvc	r6, r5, #-1275068416	; 0xb4000000
     d48:	746e6572 	strbtvc	r6, [lr], #-1394	; 0xfffffa8e
     d4c:	74786500 	ldrbtvc	r6, [r8], #-1280	; 0xfffffb00
     d50:	7465732d 	strbtvc	r7, [r5], #-813	; 0xfffffcd3
     d54:	746f6d2d 	strbtvc	r6, [pc], #-3373	; d5c <memset+0x44c>
     d58:	682d726f 	stmdavs	sp!, {r0, r1, r2, r3, r5, r6, r9, ip, sp, lr}
     d5c:	7865007a 	stmdavc	r5!, {r1, r3, r4, r5, r6}^
     d60:	65732d74 	ldrbvs	r2, [r3, #-3444]!	; 0xfffff28c
     d64:	6f6d2d74 	svcvs	0x006d2d74
     d68:	2d726f74 	ldclcs	15, cr6, [r2, #-464]!	; 0xfffffe30
     d6c:	656c6f70 	strbvs	r6, [ip, #-3952]!	; 0xfffff090
     d70:	75410073 	strbvc	r0, [r1, #-115]	; 0xffffff8d
     d74:	206f6964 	rsbcs	r6, pc, r4, ror #18
     d78:	75646f6d 	strbvc	r6, [r4, #-3949]!	; 0xfffff093
     d7c:	6920656c 	stmdbvs	r0!, {r2, r3, r5, r6, r8, sl, sp, lr}
     d80:	6974696e 	ldmdbvs	r4!, {r1, r2, r3, r5, r6, r8, fp, sp, lr}^
     d84:	7a696c61 	bvc	1a5bf10 <SPWMGenerator_GenerateSamples+0x1a59d90>
     d88:	0a2e6465 	beq	b99f24 <SPWMGenerator_GenerateSamples+0xb97da4>
     d8c:	00000000 	andeq	r0, r0, r0
     d90:	7074754f 	rsbsvc	r7, r4, pc, asr #10
     d94:	44207475 	strtmi	r7, [r0], #-1141	; 0xfffffb8b
     d98:	62617369 	rsbvs	r7, r1, #-1543503871	; 0xa4000001
     d9c:	2064656c 	rsbcs	r6, r4, ip, ror #10
     da0:	6c6c6128 	stfvse	f6, [ip], #-160	; 0xffffff60
     da4:	29733020 	ldmdbcs	r3!, {r5, ip, sp}^
     da8:	20202000 	eorcs	r2, r0, r0
     dac:	57505320 	ldrbpl	r5, [r0, -r0, lsr #6]
     db0:	7954204d 	ldmdbvc	r4, {r0, r2, r3, r6, sp}^
     db4:	203a6570 	eorscs	r6, sl, r0, ror r5
     db8:	000a7325 	andeq	r7, sl, r5, lsr #6
     dbc:	20202020 	eorcs	r2, r0, r0, lsr #32
     dc0:	72726143 	rsbsvc	r6, r2, #-1073741808	; 0xc0000010
     dc4:	20726569 	rsbscs	r6, r2, r9, ror #10
     dc8:	71657246 	cmnvc	r5, r6, asr #4
     dcc:	636e6575 	cmnvs	lr, #490733568	; 0x1d400000
     dd0:	74532079 	ldrbvc	r2, [r3], #-121	; 0xffffff87
     dd4:	3a747261 	bcc	1d1d760 <SPWMGenerator_GenerateSamples+0x1d1b5e0>
     dd8:	20642520 	rsbcs	r2, r4, r0, lsr #10
     ddc:	000a7a48 	andeq	r7, sl, r8, asr #20
     de0:	20202020 	eorcs	r2, r0, r0, lsr #32
     de4:	72726143 	rsbsvc	r6, r2, #-1073741808	; 0xc0000010
     de8:	20726569 	rsbscs	r6, r2, r9, ror #10
     dec:	71657246 	cmnvc	r5, r6, asr #4
     df0:	636e6575 	cmnvs	lr, #490733568	; 0x1d400000
     df4:	6e452079 	mcrvs	0, 2, r2, cr5, cr9, {3}
     df8:	25203a64 	strcs	r3, [r0, #-2660]!	; 0xfffff59c
     dfc:	7a482064 	bvc	1208f94 <SPWMGenerator_GenerateSamples+0x1206e14>
     e00:	2020000a 	eorcs	r0, r0, sl
     e04:	754e2020 	strbvc	r2, [lr, #-32]	; 0xffffffe0
     e08:	7265626d 	rsbvc	r6, r5, #-805306362	; 0xd0000006
     e0c:	20666f20 	rsbcs	r6, r6, r0, lsr #30
     e10:	736c7550 	cmnvc	ip, #80, 10	; 0x14000000
     e14:	203a7365 	eorscs	r7, sl, r5, ror #6
     e18:	000a6425 	andeq	r6, sl, r5, lsr #8
     e1c:	00000000 	andeq	r0, r0, r0
     e20:	6f727245 	svcvs	0x00727245
     e24:	43203a72 			; <UNDEFINED> instruction: 0x43203a72
     e28:	69666e6f 	stmdbvs	r6!, {r0, r1, r2, r3, r5, r6, r9, sl, fp, sp, lr}^
     e2c:	6f702067 	svcvs	0x00702067
     e30:	65746e69 	ldrbvs	r6, [r4, #-3689]!	; 0xfffff197
     e34:	73692072 	cmnvc	r9, #114	; 0x72
     e38:	4c554e20 	mrrcmi	14, 2, r4, r5, cr0
     e3c:	000a2e4c 	andeq	r2, sl, ip, asr #28
     e40:	65766e49 	ldrbvs	r6, [r6, #-3657]!	; 0xfffff1b7
     e44:	72657472 	rsbvc	r7, r5, #1912602624	; 0x72000000
     e48:	6e6f4320 	cdpvs	3, 6, cr4, cr15, cr0, {1}
     e4c:	75676966 	strbvc	r6, [r7, #-2406]!	; 0xfffff69a
     e50:	69746172 	ldmdbvs	r4!, {r1, r4, r5, r6, r8, sp, lr}^
     e54:	0a3a6e6f 	beq	e9c818 <SPWMGenerator_GenerateSamples+0xe9a698>
     e58:	52202000 	eorpl	r2, r0, #0
     e5c:	74204d50 	strtvc	r4, [r0], #-3408	; 0xfffff2b0
     e60:	7053206f 	subsvc	r2, r3, pc, rrx
     e64:	20646565 	rsbcs	r6, r4, r5, ror #10
     e68:	69746152 	ldmdbvs	r4!, {r1, r4, r6, r8, sp, lr}^
     e6c:	25203a6f 	strcs	r3, [r0, #-2671]!	; 0xfffff591
     e70:	0a66362e 	beq	198e730 <SPWMGenerator_GenerateSamples+0x198c5b0>
     e74:	4d202000 	stcmi	0, cr2, [r0, #-0]
     e78:	53207861 			; <UNDEFINED> instruction: 0x53207861
     e7c:	64656570 	strbtvs	r6, [r5], #-1392	; 0xfffffa90
     e80:	6625203a 			; <UNDEFINED> instruction: 0x6625203a
     e84:	2f6d6b20 	svccs	0x006d6b20
     e88:	20000a68 	andcs	r0, r0, r8, ror #20
     e8c:	6d754e20 	ldclvs	14, cr4, [r5, #-128]!	; 0xffffff80
     e90:	20726562 	rsbscs	r6, r2, r2, ror #10
     e94:	5320666f 			; <UNDEFINED> instruction: 0x5320666f
     e98:	64656570 	strbtvs	r6, [r5], #-1392	; 0xfffffa90
     e9c:	6e615220 	cdpvs	2, 6, cr5, cr1, cr0, {1}
     ea0:	3a736567 	bcc	1cda444 <SPWMGenerator_GenerateSamples+0x1cd82c4>
     ea4:	0a642520 	beq	190a32c <SPWMGenerator_GenerateSamples+0x19081ac>
     ea8:	70530a00 	subsvc	r0, r3, r0, lsl #20
     eac:	20646565 	rsbcs	r6, r4, r5, ror #10
     eb0:	676e6152 			; <UNDEFINED> instruction: 0x676e6152
     eb4:	64252065 	strtvs	r2, [r5], #-101	; 0xffffff9b
     eb8:	20000a3a 	andcs	r0, r0, sl, lsr sl
     ebc:	6e694d20 	cdpvs	13, 6, cr4, cr9, cr0, {1}
     ec0:	65705320 	ldrbvs	r5, [r0, #-800]!	; 0xfffffce0
     ec4:	203a6465 	eorscs	r6, sl, r5, ror #8
     ec8:	6b206625 	blvs	81a764 <SPWMGenerator_GenerateSamples+0x8185e4>
     ecc:	0a682f6d 	beq	1a0cc88 <SPWMGenerator_GenerateSamples+0x1a0ab08>
     ed0:	41202000 			; <UNDEFINED> instruction: 0x41202000
     ed4:	6c656363 	stclvs	3, cr6, [r5], #-396	; 0xfffffe74
     ed8:	74617265 	strbtvc	r7, [r1], #-613	; 0xfffffd9b
     edc:	206e6f69 	rsbcs	r6, lr, r9, ror #30
     ee0:	4d575053 	ldclmi	0, cr5, [r7, #-332]	; 0xfffffeb4
     ee4:	6e6f4320 	cdpvs	3, 6, cr4, cr15, cr0, {1}
     ee8:	75676966 	strbvc	r6, [r7, #-2406]!	; 0xfffff69a
     eec:	69746172 	ldmdbvs	r4!, {r1, r4, r5, r6, r8, sp, lr}^
     ef0:	0a3a6e6f 	beq	e9c8b4 <SPWMGenerator_GenerateSamples+0xe9a734>
     ef4:	43202000 	nopmi	{0}	; <UNPREDICTABLE>
     ef8:	7473616f 	ldrbtvc	r6, [r3], #-367	; 0xfffffe91
     efc:	20676e69 	rsbcs	r6, r7, r9, ror #28
     f00:	4d575053 	ldclmi	0, cr5, [r7, #-332]	; 0xfffffeb4
     f04:	6e6f4320 	cdpvs	3, 6, cr4, cr15, cr0, {1}
     f08:	75676966 	strbvc	r6, [r7, #-2406]!	; 0xfffff69a
     f0c:	69746172 	ldmdbvs	r4!, {r1, r4, r5, r6, r8, sp, lr}^
     f10:	0a3a6e6f 	beq	e9c8d4 <SPWMGenerator_GenerateSamples+0xe9a754>
     f14:	44202000 	strtmi	r2, [r0], #-0
     f18:	6c656365 	stclvs	3, cr6, [r5], #-404	; 0xfffffe6c
     f1c:	74617265 	strbtvc	r7, [r1], #-613	; 0xfffffd9b
     f20:	206e6f69 	rsbcs	r6, lr, r9, ror #30
     f24:	4d575053 	ldclmi	0, cr5, [r7, #-332]	; 0xfffffeb4
     f28:	6e6f4320 	cdpvs	3, 6, cr4, cr15, cr0, {1}
     f2c:	75676966 	strbvc	r6, [r7, #-2406]!	; 0xfffff69a
     f30:	69746172 	ldmdbvs	r4!, {r1, r4, r5, r6, r8, sp, lr}^
     f34:	0a3a6e6f 	beq	e9c8f8 <SPWMGenerator_GenerateSamples+0xe9a778>
	...

00000f40 <random_lookup_table>:
     f40:	0011002a 	andseq	r0, r1, sl, lsr #32
     f44:	003f0059 	eorseq	r0, pc, r9, asr r0	; <UNPREDICTABLE>
     f48:	0037001f 	eorseq	r0, r7, pc, lsl r0
     f4c:	0048000a 	subeq	r0, r8, sl
     f50:	001c005e 	andseq	r0, ip, lr, asr r0
     f54:	00240005 	eoreq	r0, r4, r5
     f58:	00160051 	andseq	r0, r6, r1, asr r0
     f5c:	000e0044 	andeq	r0, lr, r4, asr #32
     f60:	0031004d 	eorseq	r0, r1, sp, asr #32
     f64:	0021005a 	eoreq	r0, r1, sl, asr r0
     f68:	002d0008 	eoreq	r0, sp, r8
     f6c:	000c0063 	andeq	r0, ip, r3, rrx
     f70:	0019003c 	andseq	r0, r9, ip, lsr r0
     f74:	00280046 	eoreq	r0, r8, r6, asr #32
     f78:	00130053 	andseq	r0, r3, r3, asr r0
     f7c:	00320003 	eorseq	r0, r2, r3
     f80:	00070058 	andeq	r0, r7, r8, asr r0
     f84:	001d0041 	andseq	r0, sp, r1, asr #32
     f88:	0034004a 	eorseq	r0, r4, sl, asr #32
     f8c:	00150060 	andseq	r0, r5, r0, rrx
     f90:	00260001 	eoreq	r0, r6, r1
     f94:	0010004f 	andseq	r0, r0, pc, asr #32
     f98:	00220039 	eoreq	r0, r2, r9, lsr r0
     f9c:	002f0055 	eoreq	r0, pc, r5, asr r0	; <UNPREDICTABLE>
     fa0:	001a005c 	andseq	r0, sl, ip, asr r0
     fa4:	002c0009 	eoreq	r0, ip, r9
     fa8:	000d0062 	andeq	r0, sp, r2, rrx
     fac:	0018003d 	andseq	r0, r8, sp, lsr r0
     fb0:	00270047 	eoreq	r0, r7, r7, asr #32
     fb4:	00120054 	andseq	r0, r2, r4, asr r0
     fb8:	00330004 	eorseq	r0, r3, r4
     fbc:	00060057 	andeq	r0, r6, r7, asr r0
     fc0:	001e0042 	andseq	r0, lr, r2, asr #32
     fc4:	0035004b 	eorseq	r0, r5, fp, asr #32
     fc8:	0014005f 	andseq	r0, r4, pc, asr r0
     fcc:	00250002 	eoreq	r0, r5, r2
     fd0:	000f0050 	andeq	r0, pc, r0, asr r0	; <UNPREDICTABLE>
     fd4:	0023003a 	eoreq	r0, r3, sl, lsr r0
     fd8:	00300056 	eorseq	r0, r0, r6, asr r0
     fdc:	001b005b 	andseq	r0, fp, fp, asr r0
     fe0:	002e000b 	eoreq	r0, lr, fp
     fe4:	00170061 	andseq	r0, r7, r1, rrx
     fe8:	0020003e 	eoreq	r0, r0, lr, lsr r0
     fec:	0036004c 	eorseq	r0, r6, ip, asr #32
     ff0:	0029005d 	eoreq	r0, r9, sp, asr r0
     ff4:	002b0000 	eoreq	r0, fp, r0
     ff8:	0011004e 	andseq	r0, r1, lr, asr #32
     ffc:	0024003b 	eoreq	r0, r4, fp, lsr r0
    1000:	00310052 	eorseq	r0, r1, r2, asr r0
    1004:	00160059 	andseq	r0, r6, r9, asr r0
    1008:	00ea007b 	rsceq	r0, sl, fp, ror r0
    100c:	009100bd 	ldrheq	r0, [r1], sp
    1010:	00c90043 	sbceq	r0, r9, r3, asr #32
    1014:	00620084 	rsbeq	r0, r2, r4, lsl #1
    1018:	00d200b1 	ldrheq	r0, [r2], #1
    101c:	00780037 	rsbseq	r0, r8, r7, lsr r0
    1020:	00c80021 	sbceq	r0, r8, r1, lsr #32
    1024:	00960058 	addseq	r0, r6, r8, asr r0
    1028:	0063002c 	rsbeq	r0, r3, ip, lsr #32
    102c:	0042006f 	subeq	r0, r2, pc, rrx
    1030:	0016004d 	andseq	r0, r6, sp, asr #32
    1034:	00b400c7 	adcseq	r0, r4, r7, asr #1
    1038:	009b001e 	addseq	r0, fp, lr, lsl r0
    103c:	00a6002b 	adceq	r0, r6, fp, lsr #32
    1040:	00bc005c 	adcseq	r0, ip, ip, asr r0
    1044:	0090000a 	addseq	r0, r0, sl
    1048:	00c7004e 	sbceq	r0, r7, lr, asr #32
    104c:	007a0041 	rsbseq	r0, sl, r1, asr #32
    1050:	00210057 	eoreq	r0, r1, r7, asr r0
    1054:	006300d2 	ldrdeq	r0, [r3], #-2	; <UNPREDICTABLE>
    1058:	00b1002d 	adcseq	r0, r1, sp, lsr #32
    105c:	00580042 	subseq	r0, r8, r2, asr #32
    1060:	002c0096 	mlaeq	ip, r6, r0, r0
    1064:	00ea007b 	rsceq	r0, sl, fp, ror r0
    1068:	009100bd 	ldrheq	r0, [r1], sp
    106c:	00c90043 	sbceq	r0, r9, r3, asr #32
    1070:	00620084 	rsbeq	r0, r2, r4, lsl #1
    1074:	00d200b1 	ldrheq	r0, [r2], #1
    1078:	00780037 	rsbseq	r0, r8, r7, lsr r0
    107c:	00c80021 	sbceq	r0, r8, r1, lsr #32
    1080:	00960058 	addseq	r0, r6, r8, asr r0
    1084:	0063002c 	rsbeq	r0, r3, ip, lsr #32
    1088:	0042006f 	subeq	r0, r2, pc, rrx
    108c:	0016004d 	andseq	r0, r6, sp, asr #32
    1090:	00b400c7 	adcseq	r0, r4, r7, asr #1
    1094:	009b001e 	addseq	r0, fp, lr, lsl r0
    1098:	00a6002b 	adceq	r0, r6, fp, lsr #32
    109c:	00bc005c 	adcseq	r0, ip, ip, asr r0
    10a0:	0090000a 	addseq	r0, r0, sl
    10a4:	00c7004e 	sbceq	r0, r7, lr, asr #32
    10a8:	007a0041 	rsbseq	r0, sl, r1, asr #32
    10ac:	00210057 	eoreq	r0, r1, r7, asr r0
    10b0:	006300d2 	ldrdeq	r0, [r3], #-2	; <UNPREDICTABLE>
    10b4:	00b1002d 	adcseq	r0, r1, sp, lsr #32
    10b8:	00580042 	subseq	r0, r8, r2, asr #32
    10bc:	002c0096 	mlaeq	ip, r6, r0, r0
    10c0:	00ea007b 	rsceq	r0, sl, fp, ror r0
    10c4:	009100bd 	ldrheq	r0, [r1], sp
    10c8:	00c90043 	sbceq	r0, r9, r3, asr #32
    10cc:	00620084 	rsbeq	r0, r2, r4, lsl #1
    10d0:	00d200b1 	ldrheq	r0, [r2], #1
    10d4:	00780037 	rsbseq	r0, r8, r7, lsr r0
    10d8:	00c80021 	sbceq	r0, r8, r1, lsr #32
    10dc:	00960058 	addseq	r0, r6, r8, asr r0
    10e0:	0063002c 	rsbeq	r0, r3, ip, lsr #32
    10e4:	0042006f 	subeq	r0, r2, pc, rrx
    10e8:	0016004d 	andseq	r0, r6, sp, asr #32
    10ec:	00b400c7 	adcseq	r0, r4, r7, asr #1
    10f0:	009b001e 	addseq	r0, fp, lr, lsl r0
    10f4:	00a6002b 	adceq	r0, r6, fp, lsr #32
    10f8:	00bc005c 	adcseq	r0, ip, ip, asr r0
    10fc:	0090000a 	addseq	r0, r0, sl
    1100:	00c7004e 	sbceq	r0, r7, lr, asr #32
    1104:	007a0041 	rsbseq	r0, sl, r1, asr #32
    1108:	00210057 	eoreq	r0, r1, r7, asr r0
    110c:	006300d2 	ldrdeq	r0, [r3], #-2	; <UNPREDICTABLE>
    1110:	00b1002d 	adcseq	r0, r1, sp, lsr #32
    1114:	00580042 	subseq	r0, r8, r2, asr #32
    1118:	002c0096 	mlaeq	ip, r6, r0, r0
	...

Disassembly of section .text.playback_loop:

00001140 <playback_loop>:
    1140:	e92d 41f0 	stmdb	sp!, {r4, r5, r6, r7, r8, lr}
    1144:	4c30      	ldr	r4, [pc, #192]	; (1208 <playback_loop+0xc8>)
    1146:	4d31      	ldr	r5, [pc, #196]	; (120c <playback_loop+0xcc>)
    1148:	4e31      	ldr	r6, [pc, #196]	; (1210 <playback_loop+0xd0>)
    114a:	447c      	add	r4, pc
    114c:	447d      	add	r5, pc
    114e:	447e      	add	r6, pc
    1150:	7923      	ldrb	r3, [r4, #4]
    1152:	b1f3      	cbz	r3, 1192 <playback_loop+0x52>
    1154:	f8df 80bc 	ldr.w	r8, [pc, #188]	; 1214 <playback_loop+0xd4>
    1158:	44f8      	add	r8, pc
    115a:	e012      	b.n	1182 <playback_loop+0x42>
    115c:	f8d7 30a4 	ldr.w	r3, [r7, #164]	; 0xa4
    1160:	2001      	movs	r0, #1
    1162:	4798      	blx	r3
    1164:	f8d7 30ac 	ldr.w	r3, [r7, #172]	; 0xac
    1168:	4798      	blx	r3
    116a:	eef7 7a00 	vmov.f32	s15, #112	; 0x3f800000  1.0
    116e:	eeb4 0ae7 	vcmpe.f32	s0, s15
    1172:	eef1 fa10 	vmrs	APSR_nzcv, fpscr
    1176:	dd04      	ble.n	1182 <playback_loop+0x42>
    1178:	4827      	ldr	r0, [pc, #156]	; (1218 <playback_loop+0xd8>)
    117a:	f8d7 30b4 	ldr.w	r3, [r7, #180]	; 0xb4
    117e:	4478      	add	r0, pc
    1180:	4798      	blx	r3
    1182:	682b      	ldr	r3, [r5, #0]
    1184:	7932      	ldrb	r2, [r6, #4]
    1186:	f818 1003 	ldrb.w	r1, [r8, r3]
    118a:	4f1d      	ldr	r7, [pc, #116]	; (1200 <playback_loop+0xc0>)
    118c:	b949      	cbnz	r1, 11a2 <playback_loop+0x62>
    118e:	2a00      	cmp	r2, #0
    1190:	d1e4      	bne.n	115c <playback_loop+0x1c>
    1192:	4b1b      	ldr	r3, [pc, #108]	; (1200 <playback_loop+0xc0>)
    1194:	4821      	ldr	r0, [pc, #132]	; (121c <playback_loop+0xdc>)
    1196:	f8d3 30b4 	ldr.w	r3, [r3, #180]	; 0xb4
    119a:	e8bd 41f0 	ldmia.w	sp!, {r4, r5, r6, r7, r8, lr}
    119e:	4478      	add	r0, pc
    11a0:	4718      	bx	r3
    11a2:	2a00      	cmp	r2, #0
    11a4:	d0f5      	beq.n	1192 <playback_loop+0x52>
    11a6:	4a1e      	ldr	r2, [pc, #120]	; (1220 <playback_loop+0xe0>)
    11a8:	447a      	add	r2, pc
    11aa:	6812      	ldr	r2, [r2, #0]
    11ac:	b16a      	cbz	r2, 11ca <playback_loop+0x8a>
    11ae:	481d      	ldr	r0, [pc, #116]	; (1224 <playback_loop+0xe4>)
    11b0:	491d      	ldr	r1, [pc, #116]	; (1228 <playback_loop+0xe8>)
    11b2:	f8d7 23d4 	ldr.w	r2, [r7, #980]	; 0x3d4
    11b6:	ed9f 0a13 	vldr	s0, [pc, #76]	; 1204 <playback_loop+0xc4>
    11ba:	4478      	add	r0, pc
    11bc:	4479      	add	r1, pc
    11be:	edd1 0a00 	vldr	s1, [r1]
    11c2:	f850 0023 	ldr.w	r0, [r0, r3, lsl #2]
    11c6:	21fa      	movs	r1, #250	; 0xfa
    11c8:	4790      	blx	r2
    11ca:	4a18      	ldr	r2, [pc, #96]	; (122c <playback_loop+0xec>)
    11cc:	447a      	add	r2, pc
    11ce:	f242 7010 	movw	r0, #10000	; 0x2710
    11d2:	6813      	ldr	r3, [r2, #0]
    11d4:	33fa      	adds	r3, #250	; 0xfa
    11d6:	6013      	str	r3, [r2, #0]
    11d8:	f8d7 30a8 	ldr.w	r3, [r7, #168]	; 0xa8
    11dc:	4798      	blx	r3
    11de:	4914      	ldr	r1, [pc, #80]	; (1230 <playback_loop+0xf0>)
    11e0:	4a14      	ldr	r2, [pc, #80]	; (1234 <playback_loop+0xf4>)
    11e2:	4479      	add	r1, pc
    11e4:	447a      	add	r2, pc
    11e6:	680b      	ldr	r3, [r1, #0]
    11e8:	2000      	movs	r0, #0
    11ea:	54d0      	strb	r0, [r2, r3]
    11ec:	3301      	adds	r3, #1
    11ee:	2203      	movs	r2, #3
    11f0:	fb93 f2f2 	sdiv	r2, r3, r2
    11f4:	eb02 0242 	add.w	r2, r2, r2, lsl #1
    11f8:	1a9b      	subs	r3, r3, r2
    11fa:	600b      	str	r3, [r1, #0]
    11fc:	e7a8      	b.n	1150 <playback_loop+0x10>
    11fe:	bf00      	nop
    1200:	1000f800 	andne	pc, r0, r0, lsl #16
    1204:	46c35000 	strbmi	r5, [r3], r0
    1208:	fffff40a 			; <UNDEFINED> instruction: 0xfffff40a
    120c:	fffff378 			; <UNDEFINED> instruction: 0xfffff378
    1210:	fffff406 			; <UNDEFINED> instruction: 0xfffff406
    1214:	fffff35c 			; <UNDEFINED> instruction: 0xfffff35c
    1218:	fffff83e 			; <UNDEFINED> instruction: 0xfffff83e
    121c:	fffff853 			; <UNDEFINED> instruction: 0xfffff853
    1220:	fffff394 			; <UNDEFINED> instruction: 0xfffff394
    1224:	fffff2fe 			; <UNDEFINED> instruction: 0xfffff2fe
    1228:	fffff2f4 			; <UNDEFINED> instruction: 0xfffff2f4
    122c:	fffff3a8 			; <UNDEFINED> instruction: 0xfffff3a8
    1230:	fffff2e2 			; <UNDEFINED> instruction: 0xfffff2e2
    1234:	fffff2d0 			; <UNDEFINED> instruction: 0xfffff2d0

Disassembly of section .text.ext_start_audio_loop:

00001238 <ext_start_audio_loop>:
    1238:	4b29      	ldr	r3, [pc, #164]	; (12e0 <ext_start_audio_loop+0xa8>)
    123a:	447b      	add	r3, pc
    123c:	e92d 41f0 	stmdb	sp!, {r4, r5, r6, r7, r8, lr}
    1240:	791b      	ldrb	r3, [r3, #4]
    1242:	4c26      	ldr	r4, [pc, #152]	; (12dc <ext_start_audio_loop+0xa4>)
    1244:	2b00      	cmp	r3, #0
    1246:	d144      	bne.n	12d2 <ext_start_audio_loop+0x9a>
    1248:	4b26      	ldr	r3, [pc, #152]	; (12e4 <ext_start_audio_loop+0xac>)
    124a:	447b      	add	r3, pc
    124c:	791d      	ldrb	r5, [r3, #4]
    124e:	2d00      	cmp	r5, #0
    1250:	d13f      	bne.n	12d2 <ext_start_audio_loop+0x9a>
    1252:	4f25      	ldr	r7, [pc, #148]	; (12e8 <ext_start_audio_loop+0xb0>)
    1254:	4e25      	ldr	r6, [pc, #148]	; (12ec <ext_start_audio_loop+0xb4>)
    1256:	447f      	add	r7, pc
    1258:	447e      	add	r6, pc
    125a:	46a8      	mov	r8, r5
    125c:	f8d4 30b8 	ldr.w	r3, [r4, #184]	; 0xb8
    1260:	20fa      	movs	r0, #250	; 0xfa
    1262:	4798      	blx	r3
    1264:	f847 0b04 	str.w	r0, [r7], #4
    1268:	b948      	cbnz	r0, 127e <ext_start_audio_loop+0x46>
    126a:	4821      	ldr	r0, [pc, #132]	; (12f0 <ext_start_audio_loop+0xb8>)
    126c:	f8d4 30b4 	ldr.w	r3, [r4, #180]	; 0xb4
    1270:	4629      	mov	r1, r5
    1272:	4478      	add	r0, pc
    1274:	4798      	blx	r3
    1276:	f8d4 0094 	ldr.w	r0, [r4, #148]	; 0x94
    127a:	e8bd 81f0 	ldmia.w	sp!, {r4, r5, r6, r7, r8, pc}
    127e:	3501      	adds	r5, #1
    1280:	2d03      	cmp	r5, #3
    1282:	f806 8b01 	strb.w	r8, [r6], #1
    1286:	d1e9      	bne.n	125c <ext_start_audio_loop+0x24>
    1288:	4e1a      	ldr	r6, [pc, #104]	; (12f4 <ext_start_audio_loop+0xbc>)
    128a:	4d1b      	ldr	r5, [pc, #108]	; (12f8 <ext_start_audio_loop+0xc0>)
    128c:	4a1b      	ldr	r2, [pc, #108]	; (12fc <ext_start_audio_loop+0xc4>)
    128e:	481c      	ldr	r0, [pc, #112]	; (1300 <ext_start_audio_loop+0xc8>)
    1290:	f8d4 70c0 	ldr.w	r7, [r4, #192]	; 0xc0
    1294:	447e      	add	r6, pc
    1296:	447d      	add	r5, pc
    1298:	2301      	movs	r3, #1
    129a:	7133      	strb	r3, [r6, #4]
    129c:	712b      	strb	r3, [r5, #4]
    129e:	447a      	add	r2, pc
    12a0:	2300      	movs	r3, #0
    12a2:	f44f 6180 	mov.w	r1, #1024	; 0x400
    12a6:	4478      	add	r0, pc
    12a8:	47b8      	blx	r7
    12aa:	4a16      	ldr	r2, [pc, #88]	; (1304 <ext_start_audio_loop+0xcc>)
    12ac:	6030      	str	r0, [r6, #0]
    12ae:	4816      	ldr	r0, [pc, #88]	; (1308 <ext_start_audio_loop+0xd0>)
    12b0:	f8d4 60c0 	ldr.w	r6, [r4, #192]	; 0xc0
    12b4:	2300      	movs	r3, #0
    12b6:	447a      	add	r2, pc
    12b8:	f44f 6180 	mov.w	r1, #1024	; 0x400
    12bc:	4478      	add	r0, pc
    12be:	47b0      	blx	r6
    12c0:	6028      	str	r0, [r5, #0]
    12c2:	4812      	ldr	r0, [pc, #72]	; (130c <ext_start_audio_loop+0xd4>)
    12c4:	f8d4 30b4 	ldr.w	r3, [r4, #180]	; 0xb4
    12c8:	4478      	add	r0, pc
    12ca:	4798      	blx	r3
    12cc:	f8d4 008c 	ldr.w	r0, [r4, #140]	; 0x8c
    12d0:	e7d3      	b.n	127a <ext_start_audio_loop+0x42>
    12d2:	480f      	ldr	r0, [pc, #60]	; (1310 <ext_start_audio_loop+0xd8>)
    12d4:	f8d4 30b4 	ldr.w	r3, [r4, #180]	; 0xb4
    12d8:	4478      	add	r0, pc
    12da:	e7f6      	b.n	12ca <ext_start_audio_loop+0x92>
    12dc:	1000f800 	andne	pc, r0, r0, lsl #16
    12e0:	fffff2ce 			; <UNDEFINED> instruction: 0xfffff2ce
    12e4:	fffff30a 			; <UNDEFINED> instruction: 0xfffff30a
    12e8:	fffff262 			; <UNDEFINED> instruction: 0xfffff262
    12ec:	fffff25c 			; <UNDEFINED> instruction: 0xfffff25c
    12f0:	fffff7aa 			; <UNDEFINED> instruction: 0xfffff7aa
    12f4:	fffff274 			; <UNDEFINED> instruction: 0xfffff274
    12f8:	fffff2be 			; <UNDEFINED> instruction: 0xfffff2be
    12fc:	fffff79c 			; <UNDEFINED> instruction: 0xfffff79c
    1300:	00000347 	andeq	r0, r0, r7, asr #6
    1304:	fffff793 			; <UNDEFINED> instruction: 0xfffff793
    1308:	fffffe81 			; <UNDEFINED> instruction: 0xfffffe81
    130c:	fffff78f 			; <UNDEFINED> instruction: 0xfffff78f
    1310:	fffff7a8 			; <UNDEFINED> instruction: 0xfffff7a8

Disassembly of section .text.ext_stop_audio_loop:

00001314 <ext_stop_audio_loop>:
    1314:	b5f8      	push	{r3, r4, r5, r6, r7, lr}
    1316:	4b18      	ldr	r3, [pc, #96]	; (1378 <ext_stop_audio_loop+0x64>)
    1318:	4c16      	ldr	r4, [pc, #88]	; (1374 <ext_stop_audio_loop+0x60>)
    131a:	447b      	add	r3, pc
    131c:	791a      	ldrb	r2, [r3, #4]
    131e:	b31a      	cbz	r2, 1368 <ext_stop_audio_loop+0x54>
    1320:	4d16      	ldr	r5, [pc, #88]	; (137c <ext_stop_audio_loop+0x68>)
    1322:	447d      	add	r5, pc
    1324:	792a      	ldrb	r2, [r5, #4]
    1326:	b1fa      	cbz	r2, 1368 <ext_stop_audio_loop+0x54>
    1328:	6818      	ldr	r0, [r3, #0]
    132a:	f8d4 20c4 	ldr.w	r2, [r4, #196]	; 0xc4
    132e:	4e14      	ldr	r6, [pc, #80]	; (1380 <ext_stop_audio_loop+0x6c>)
    1330:	2700      	movs	r7, #0
    1332:	711f      	strb	r7, [r3, #4]
    1334:	712f      	strb	r7, [r5, #4]
    1336:	4790      	blx	r2
    1338:	6828      	ldr	r0, [r5, #0]
    133a:	f8d4 30c4 	ldr.w	r3, [r4, #196]	; 0xc4
    133e:	4798      	blx	r3
    1340:	447e      	add	r6, pc
    1342:	2503      	movs	r5, #3
    1344:	f856 0b04 	ldr.w	r0, [r6], #4
    1348:	b120      	cbz	r0, 1354 <ext_stop_audio_loop+0x40>
    134a:	f8d4 30bc 	ldr.w	r3, [r4, #188]	; 0xbc
    134e:	4798      	blx	r3
    1350:	f846 7c04 	str.w	r7, [r6, #-4]
    1354:	3d01      	subs	r5, #1
    1356:	d1f5      	bne.n	1344 <ext_stop_audio_loop+0x30>
    1358:	480a      	ldr	r0, [pc, #40]	; (1384 <ext_stop_audio_loop+0x70>)
    135a:	f8d4 30b4 	ldr.w	r3, [r4, #180]	; 0xb4
    135e:	4478      	add	r0, pc
    1360:	4798      	blx	r3
    1362:	f8d4 008c 	ldr.w	r0, [r4, #140]	; 0x8c
    1366:	bdf8      	pop	{r3, r4, r5, r6, r7, pc}
    1368:	4807      	ldr	r0, [pc, #28]	; (1388 <ext_stop_audio_loop+0x74>)
    136a:	f8d4 30b4 	ldr.w	r3, [r4, #180]	; 0xb4
    136e:	4478      	add	r0, pc
    1370:	e7f6      	b.n	1360 <ext_stop_audio_loop+0x4c>
    1372:	bf00      	nop
    1374:	1000f800 	andne	pc, r0, r0, lsl #16
    1378:	fffff1ee 			; <UNDEFINED> instruction: 0xfffff1ee
    137c:	fffff232 			; <UNDEFINED> instruction: 0xfffff232
    1380:	fffff178 			; <UNDEFINED> instruction: 0xfffff178
    1384:	fffff75e 			; <UNDEFINED> instruction: 0xfffff75e
    1388:	fffff777 			; <UNDEFINED> instruction: 0xfffff777

Disassembly of section .text.ext_get_stats:

00001390 <ext_get_stats>:
    1390:	b5f0      	push	{r4, r5, r6, r7, lr}
    1392:	ed2d 8b02 	vpush	{d8}
    1396:	4c76      	ldr	r4, [pc, #472]	; (1570 <ext_get_stats+0x1e0>)
    1398:	b085      	sub	sp, #20
    139a:	b129      	cbz	r1, 13a8 <ext_get_stats+0x18>
    139c:	f8d4 0094 	ldr.w	r0, [r4, #148]	; 0x94
    13a0:	b005      	add	sp, #20
    13a2:	ecbd 8b02 	vpop	{d8}
    13a6:	bdf0      	pop	{r4, r5, r6, r7, pc}
    13a8:	f8d4 30ac 	ldr.w	r3, [r4, #172]	; 0xac
    13ac:	4798      	blx	r3
    13ae:	4a72      	ldr	r2, [pc, #456]	; (1578 <ext_get_stats+0x1e8>)
    13b0:	447a      	add	r2, pc
    13b2:	edd2 7a00 	vldr	s15, [r2]
    13b6:	ee70 7a67 	vsub.f32	s15, s0, s15
    13ba:	eeb7 7a00 	vmov.f32	s14, #112	; 0x3f800000  1.0
    13be:	eef4 7ac7 	vcmpe.f32	s15, s14
    13c2:	eef1 fa10 	vmrs	APSR_nzcv, fpscr
    13c6:	f2c0 80ba 	blt.w	153e <ext_get_stats+0x1ae>
    13ca:	496c      	ldr	r1, [pc, #432]	; (157c <ext_get_stats+0x1ec>)
    13cc:	4b6c      	ldr	r3, [pc, #432]	; (1580 <ext_get_stats+0x1f0>)
    13ce:	4e6d      	ldr	r6, [pc, #436]	; (1584 <ext_get_stats+0x1f4>)
    13d0:	ed82 0a00 	vstr	s0, [r2]
    13d4:	4479      	add	r1, pc
    13d6:	447e      	add	r6, pc
    13d8:	447b      	add	r3, pc
    13da:	680d      	ldr	r5, [r1, #0]
    13dc:	496a      	ldr	r1, [pc, #424]	; (1588 <ext_get_stats+0x1f8>)
    13de:	681f      	ldr	r7, [r3, #0]
    13e0:	6833      	ldr	r3, [r6, #0]
    13e2:	6037      	str	r7, [r6, #0]
    13e4:	4479      	add	r1, pc
    13e6:	1afb      	subs	r3, r7, r3
    13e8:	6808      	ldr	r0, [r1, #0]
    13ea:	600d      	str	r5, [r1, #0]
    13ec:	ee07 3a90 	vmov	s15, r3
    13f0:	1a28      	subs	r0, r5, r0
    13f2:	eeb8 8a67 	vcvt.f32.u32	s16, s15
    13f6:	ee07 0a90 	vmov	s15, r0
    13fa:	ee18 0a10 	vmov	r0, s16
    13fe:	eef8 8a67 	vcvt.f32.u32	s17, s15
    1402:	f7ff fa29 	bl	858 <__aeabi_f2d>
    1406:	eddf 7a5b 	vldr	s15, [pc, #364]	; 1574 <ext_get_stats+0x1e4>
    140a:	eeb4 8ae7 	vcmpe.f32	s16, s15
    140e:	eef1 fa10 	vmrs	APSR_nzcv, fpscr
    1412:	4606      	mov	r6, r0
    1414:	460f      	mov	r7, r1
    1416:	dd0b      	ble.n	1430 <ext_get_stats+0xa0>
    1418:	a353      	add	r3, pc, #332	; (adr r3, 1568 <ext_get_stats+0x1d8>)
    141a:	e9d3 2300 	ldrd	r2, r3, [r3]
    141e:	e9cd 2300 	strd	r2, r3, [sp]
    1422:	485a      	ldr	r0, [pc, #360]	; (158c <ext_get_stats+0x1fc>)
    1424:	f8d4 10b4 	ldr.w	r1, [r4, #180]	; 0xb4
    1428:	4632      	mov	r2, r6
    142a:	463b      	mov	r3, r7
    142c:	4478      	add	r0, pc
    142e:	4788      	blx	r1
    1430:	ee18 0a90 	vmov	r0, s17
    1434:	f7ff fa10 	bl	858 <__aeabi_f2d>
    1438:	e9cd 0100 	strd	r0, r1, [sp]
    143c:	4854      	ldr	r0, [pc, #336]	; (1590 <ext_get_stats+0x200>)
    143e:	f8d4 10b4 	ldr.w	r1, [r4, #180]	; 0xb4
    1442:	4d54      	ldr	r5, [pc, #336]	; (1594 <ext_get_stats+0x204>)
    1444:	4632      	mov	r2, r6
    1446:	463b      	mov	r3, r7
    1448:	4478      	add	r0, pc
    144a:	4788      	blx	r1
    144c:	4b52      	ldr	r3, [pc, #328]	; (1598 <ext_get_stats+0x208>)
    144e:	447b      	add	r3, pc
    1450:	edd3 7a00 	vldr	s15, [r3]
    1454:	4b51      	ldr	r3, [pc, #324]	; (159c <ext_get_stats+0x20c>)
    1456:	447b      	add	r3, pc
    1458:	edd3 6a00 	vldr	s13, [r3]
    145c:	4b50      	ldr	r3, [pc, #320]	; (15a0 <ext_get_stats+0x210>)
    145e:	eef8 7ae7 	vcvt.f32.s32	s15, s15
    1462:	447b      	add	r3, pc
    1464:	ee86 7aa7 	vdiv.f32	s14, s13, s15
    1468:	447d      	add	r5, pc
    146a:	edd3 7a00 	vldr	s15, [r3]
    146e:	ee67 7a27 	vmul.f32	s15, s14, s15
    1472:	ee17 0a90 	vmov	r0, s15
    1476:	f7ff f9ef 	bl	858 <__aeabi_f2d>
    147a:	4602      	mov	r2, r0
    147c:	4849      	ldr	r0, [pc, #292]	; (15a4 <ext_get_stats+0x214>)
    147e:	460b      	mov	r3, r1
    1480:	4478      	add	r0, pc
    1482:	f8d4 10b4 	ldr.w	r1, [r4, #180]	; 0xb4
    1486:	4788      	blx	r1
    1488:	6828      	ldr	r0, [r5, #0]
    148a:	f7ff f9e5 	bl	858 <__aeabi_f2d>
    148e:	4602      	mov	r2, r0
    1490:	460b      	mov	r3, r1
    1492:	6868      	ldr	r0, [r5, #4]
    1494:	e9cd 2302 	strd	r2, r3, [sp, #8]
    1498:	f7ff f9de 	bl	858 <__aeabi_f2d>
    149c:	e9cd 0100 	strd	r0, r1, [sp]
    14a0:	4841      	ldr	r0, [pc, #260]	; (15a8 <ext_get_stats+0x218>)
    14a2:	f8d4 10b4 	ldr.w	r1, [r4, #180]	; 0xb4
    14a6:	e9dd 2302 	ldrd	r2, r3, [sp, #8]
    14aa:	4478      	add	r0, pc
    14ac:	4788      	blx	r1
    14ae:	4b3f      	ldr	r3, [pc, #252]	; (15ac <ext_get_stats+0x21c>)
    14b0:	447b      	add	r3, pc
    14b2:	781b      	ldrb	r3, [r3, #0]
    14b4:	2b01      	cmp	r3, #1
    14b6:	d01a      	beq.n	14ee <ext_get_stats+0x15e>
    14b8:	2b02      	cmp	r3, #2
    14ba:	d01b      	beq.n	14f4 <ext_get_stats+0x164>
    14bc:	b9eb      	cbnz	r3, 14fa <ext_get_stats+0x16a>
    14be:	493c      	ldr	r1, [pc, #240]	; (15b0 <ext_get_stats+0x220>)
    14c0:	4479      	add	r1, pc
    14c2:	483c      	ldr	r0, [pc, #240]	; (15b4 <ext_get_stats+0x224>)
    14c4:	f8d4 30b4 	ldr.w	r3, [r4, #180]	; 0xb4
    14c8:	4478      	add	r0, pc
    14ca:	4798      	blx	r3
    14cc:	493a      	ldr	r1, [pc, #232]	; (15b8 <ext_get_stats+0x228>)
    14ce:	4a3b      	ldr	r2, [pc, #236]	; (15bc <ext_get_stats+0x22c>)
    14d0:	4479      	add	r1, pc
    14d2:	447a      	add	r2, pc
    14d4:	7809      	ldrb	r1, [r1, #0]
    14d6:	7a13      	ldrb	r3, [r2, #8]
    14d8:	2901      	cmp	r1, #1
    14da:	d011      	beq.n	1500 <ext_get_stats+0x170>
    14dc:	2902      	cmp	r1, #2
    14de:	d011      	beq.n	1504 <ext_get_stats+0x174>
    14e0:	2b04      	cmp	r3, #4
    14e2:	d83b      	bhi.n	155c <ext_get_stats+0x1cc>
    14e4:	e8df f003 	tbb	[pc, r3]
    14e8:	312e1137 			; <UNDEFINED> instruction: 0x312e1137
    14ec:	49340034 	ldmdbmi	r4!, {r2, r4, r5}
    14f0:	4479      	add	r1, pc
    14f2:	e7e6      	b.n	14c2 <ext_get_stats+0x132>
    14f4:	4933      	ldr	r1, [pc, #204]	; (15c4 <ext_get_stats+0x234>)
    14f6:	4479      	add	r1, pc
    14f8:	e7e3      	b.n	14c2 <ext_get_stats+0x132>
    14fa:	4933      	ldr	r1, [pc, #204]	; (15c8 <ext_get_stats+0x238>)
    14fc:	4479      	add	r1, pc
    14fe:	e7e0      	b.n	14c2 <ext_get_stats+0x132>
    1500:	7e13      	ldrb	r3, [r2, #24]
    1502:	e7ed      	b.n	14e0 <ext_get_stats+0x150>
    1504:	f892 3028 	ldrb.w	r3, [r2, #40]	; 0x28
    1508:	e7ea      	b.n	14e0 <ext_get_stats+0x150>
    150a:	4d30      	ldr	r5, [pc, #192]	; (15cc <ext_get_stats+0x23c>)
    150c:	447d      	add	r5, pc
    150e:	4b30      	ldr	r3, [pc, #192]	; (15d0 <ext_get_stats+0x240>)
    1510:	447b      	add	r3, pc
    1512:	6898      	ldr	r0, [r3, #8]
    1514:	f7ff f9a0 	bl	858 <__aeabi_f2d>
    1518:	460b      	mov	r3, r1
    151a:	492e      	ldr	r1, [pc, #184]	; (15d4 <ext_get_stats+0x244>)
    151c:	4479      	add	r1, pc
    151e:	4602      	mov	r2, r0
    1520:	6808      	ldr	r0, [r1, #0]
    1522:	e9cd 2302 	strd	r2, r3, [sp, #8]
    1526:	f7ff f997 	bl	858 <__aeabi_f2d>
    152a:	e9cd 0100 	strd	r0, r1, [sp]
    152e:	482a      	ldr	r0, [pc, #168]	; (15d8 <ext_get_stats+0x248>)
    1530:	f8d4 60b4 	ldr.w	r6, [r4, #180]	; 0xb4
    1534:	e9dd 2302 	ldrd	r2, r3, [sp, #8]
    1538:	4629      	mov	r1, r5
    153a:	4478      	add	r0, pc
    153c:	47b0      	blx	r6
    153e:	f8d4 008c 	ldr.w	r0, [r4, #140]	; 0x8c
    1542:	e72d      	b.n	13a0 <ext_get_stats+0x10>
    1544:	4d25      	ldr	r5, [pc, #148]	; (15dc <ext_get_stats+0x24c>)
    1546:	447d      	add	r5, pc
    1548:	e7e1      	b.n	150e <ext_get_stats+0x17e>
    154a:	4d25      	ldr	r5, [pc, #148]	; (15e0 <ext_get_stats+0x250>)
    154c:	447d      	add	r5, pc
    154e:	e7de      	b.n	150e <ext_get_stats+0x17e>
    1550:	4d24      	ldr	r5, [pc, #144]	; (15e4 <ext_get_stats+0x254>)
    1552:	447d      	add	r5, pc
    1554:	e7db      	b.n	150e <ext_get_stats+0x17e>
    1556:	4d24      	ldr	r5, [pc, #144]	; (15e8 <ext_get_stats+0x258>)
    1558:	447d      	add	r5, pc
    155a:	e7d8      	b.n	150e <ext_get_stats+0x17e>
    155c:	4d23      	ldr	r5, [pc, #140]	; (15ec <ext_get_stats+0x25c>)
    155e:	447d      	add	r5, pc
    1560:	e7d5      	b.n	150e <ext_get_stats+0x17e>
    1562:	bf00      	nop
    1564:	f3af 8000 	nop.w
    1568:	00000000 	andeq	r0, r0, r0
    156c:	40d86a00 	sbcsmi	r6, r8, r0, lsl #20
    1570:	1000f800 	andne	pc, r0, r0, lsl #16
    1574:	46ea6001 	strbtmi	r6, [sl], r1
    1578:	fffff19c 			; <UNDEFINED> instruction: 0xfffff19c
    157c:	fffff1a0 			; <UNDEFINED> instruction: 0xfffff1a0
    1580:	fffff1a0 			; <UNDEFINED> instruction: 0xfffff1a0
    1584:	fffff172 			; <UNDEFINED> instruction: 0xfffff172
    1588:	fffff160 			; <UNDEFINED> instruction: 0xfffff160
    158c:	fffff753 			; <UNDEFINED> instruction: 0xfffff753
    1590:	fffff774 			; <UNDEFINED> instruction: 0xfffff774
    1594:	ffffec74 			; <UNDEFINED> instruction: 0xffffec74
    1598:	fffff102 			; <UNDEFINED> instruction: 0xfffff102
    159c:	fffff0ea 			; <UNDEFINED> instruction: 0xfffff0ea
    15a0:	ffffecb2 			; <UNDEFINED> instruction: 0xffffecb2
    15a4:	fffff774 			; <UNDEFINED> instruction: 0xfffff774
    15a8:	fffff764 			; <UNDEFINED> instruction: 0xfffff764
    15ac:	ffffec28 			; <UNDEFINED> instruction: 0xffffec28
    15b0:	fffff67a 			; <UNDEFINED> instruction: 0xfffff67a
    15b4:	fffff76e 			; <UNDEFINED> instruction: 0xfffff76e
    15b8:	ffffec08 			; <UNDEFINED> instruction: 0xffffec08
    15bc:	ffffec0a 			; <UNDEFINED> instruction: 0xffffec0a
    15c0:	fffff62c 			; <UNDEFINED> instruction: 0xfffff62c
    15c4:	fffff62f 			; <UNDEFINED> instruction: 0xfffff62f
    15c8:	fffff636 			; <UNDEFINED> instruction: 0xfffff636
    15cc:	fffff667 			; <UNDEFINED> instruction: 0xfffff667
    15d0:	ffffefe0 			; <UNDEFINED> instruction: 0xffffefe0
    15d4:	ffffef94 			; <UNDEFINED> instruction: 0xffffef94
    15d8:	fffff70d 			; <UNDEFINED> instruction: 0xfffff70d
    15dc:	fffff60a 			; <UNDEFINED> instruction: 0xfffff60a
    15e0:	fffff60f 			; <UNDEFINED> instruction: 0xfffff60f
    15e4:	fffff615 			; <UNDEFINED> instruction: 0xfffff615
    15e8:	fffff5ef 			; <UNDEFINED> instruction: 0xfffff5ef
    15ec:	fffff5d4 			; <UNDEFINED> instruction: 0xfffff5d4

Disassembly of section .text.generator_loop:

000015f0 <generator_loop>:
    15f0:	b5f7      	push	{r0, r1, r2, r4, r5, r6, r7, lr}
    15f2:	482b      	ldr	r0, [pc, #172]	; (16a0 <generator_loop+0xb0>)
    15f4:	4d2b      	ldr	r5, [pc, #172]	; (16a4 <generator_loop+0xb4>)
    15f6:	4c2c      	ldr	r4, [pc, #176]	; (16a8 <generator_loop+0xb8>)
    15f8:	4e2c      	ldr	r6, [pc, #176]	; (16ac <generator_loop+0xbc>)
    15fa:	4478      	add	r0, pc
    15fc:	f000 fd94 	bl	2128 <SPWMGenerator_Init>
    1600:	447d      	add	r5, pc
    1602:	447c      	add	r4, pc
    1604:	447e      	add	r6, pc
    1606:	792b      	ldrb	r3, [r5, #4]
    1608:	b16b      	cbz	r3, 1626 <generator_loop+0x36>
    160a:	4f29      	ldr	r7, [pc, #164]	; (16b0 <generator_loop+0xc0>)
    160c:	447f      	add	r7, pc
    160e:	e004      	b.n	161a <generator_loop+0x2a>
    1610:	4b22      	ldr	r3, [pc, #136]	; (169c <generator_loop+0xac>)
    1612:	2001      	movs	r0, #1
    1614:	f8d3 30a4 	ldr.w	r3, [r3, #164]	; 0xa4
    1618:	4798      	blx	r3
    161a:	6822      	ldr	r2, [r4, #0]
    161c:	7933      	ldrb	r3, [r6, #4]
    161e:	5cb9      	ldrb	r1, [r7, r2]
    1620:	b151      	cbz	r1, 1638 <generator_loop+0x48>
    1622:	2b00      	cmp	r3, #0
    1624:	d1f4      	bne.n	1610 <generator_loop+0x20>
    1626:	4b1d      	ldr	r3, [pc, #116]	; (169c <generator_loop+0xac>)
    1628:	4822      	ldr	r0, [pc, #136]	; (16b4 <generator_loop+0xc4>)
    162a:	f8d3 30b4 	ldr.w	r3, [r3, #180]	; 0xb4
    162e:	4478      	add	r0, pc
    1630:	b003      	add	sp, #12
    1632:	e8bd 40f0 	ldmia.w	sp!, {r4, r5, r6, r7, lr}
    1636:	4718      	bx	r3
    1638:	2b00      	cmp	r3, #0
    163a:	d0f4      	beq.n	1626 <generator_loop+0x36>
    163c:	4b1e      	ldr	r3, [pc, #120]	; (16b8 <generator_loop+0xc8>)
    163e:	481f      	ldr	r0, [pc, #124]	; (16bc <generator_loop+0xcc>)
    1640:	447b      	add	r3, pc
    1642:	4478      	add	r0, pc
    1644:	7819      	ldrb	r1, [r3, #0]
    1646:	4b1e      	ldr	r3, [pc, #120]	; (16c0 <generator_loop+0xd0>)
    1648:	447b      	add	r3, pc
    164a:	681b      	ldr	r3, [r3, #0]
    164c:	9301      	str	r3, [sp, #4]
    164e:	4b1d      	ldr	r3, [pc, #116]	; (16c4 <generator_loop+0xd4>)
    1650:	447b      	add	r3, pc
    1652:	9300      	str	r3, [sp, #0]
    1654:	4b1c      	ldr	r3, [pc, #112]	; (16c8 <generator_loop+0xd8>)
    1656:	f850 2022 	ldr.w	r2, [r0, r2, lsl #2]
    165a:	481c      	ldr	r0, [pc, #112]	; (16cc <generator_loop+0xdc>)
    165c:	447b      	add	r3, pc
    165e:	edd3 0a00 	vldr	s1, [r3]
    1662:	4b1b      	ldr	r3, [pc, #108]	; (16d0 <generator_loop+0xe0>)
    1664:	447b      	add	r3, pc
    1666:	ed93 0a00 	vldr	s0, [r3]
    166a:	4478      	add	r0, pc
    166c:	23fa      	movs	r3, #250	; 0xfa
    166e:	f000 fd87 	bl	2180 <SPWMGenerator_GenerateSamples>
    1672:	4b18      	ldr	r3, [pc, #96]	; (16d4 <generator_loop+0xe4>)
    1674:	4918      	ldr	r1, [pc, #96]	; (16d8 <generator_loop+0xe8>)
    1676:	447b      	add	r3, pc
    1678:	4479      	add	r1, pc
    167a:	6018      	str	r0, [r3, #0]
    167c:	6823      	ldr	r3, [r4, #0]
    167e:	2201      	movs	r2, #1
    1680:	54fa      	strb	r2, [r7, r3]
    1682:	680a      	ldr	r2, [r1, #0]
    1684:	32fa      	adds	r2, #250	; 0xfa
    1686:	3301      	adds	r3, #1
    1688:	600a      	str	r2, [r1, #0]
    168a:	2203      	movs	r2, #3
    168c:	fb93 f2f2 	sdiv	r2, r3, r2
    1690:	eb02 0242 	add.w	r2, r2, r2, lsl #1
    1694:	1a9b      	subs	r3, r3, r2
    1696:	6023      	str	r3, [r4, #0]
    1698:	e7b5      	b.n	1606 <generator_loop+0x16>
    169a:	bf00      	nop
    169c:	1000f800 	andne	pc, r0, r0, lsl #16
    16a0:	ffffeef6 			; <UNDEFINED> instruction: 0xffffeef6
    16a4:	ffffef08 			; <UNDEFINED> instruction: 0xffffef08
    16a8:	ffffef5a 			; <UNDEFINED> instruction: 0xffffef5a
    16ac:	ffffef04 			; <UNDEFINED> instruction: 0xffffef04
    16b0:	ffffeea8 			; <UNDEFINED> instruction: 0xffffeea8
    16b4:	fffff65e 			; <UNDEFINED> instruction: 0xfffff65e
    16b8:	ffffea98 			; <UNDEFINED> instruction: 0xffffea98
    16bc:	ffffee76 			; <UNDEFINED> instruction: 0xffffee76
    16c0:	ffffef08 			; <UNDEFINED> instruction: 0xffffef08
    16c4:	ffffea8c 			; <UNDEFINED> instruction: 0xffffea8c
    16c8:	ffffeab8 			; <UNDEFINED> instruction: 0xffffeab8
    16cc:	ffffee86 			; <UNDEFINED> instruction: 0xffffee86
    16d0:	ffffeedc 			; <UNDEFINED> instruction: 0xffffeedc
    16d4:	ffffeec6 			; <UNDEFINED> instruction: 0xffffeec6
    16d8:	ffffef00 			; <UNDEFINED> instruction: 0xffffef00

Disassembly of section .text.stop:

000016dc <stop>:
    16dc:	4b16      	ldr	r3, [pc, #88]	; (1738 <stop+0x5c>)
    16de:	447b      	add	r3, pc
    16e0:	e92d 41f0 	stmdb	sp!, {r4, r5, r6, r7, r8, lr}
    16e4:	791a      	ldrb	r2, [r3, #4]
    16e6:	b31a      	cbz	r2, 1730 <stop+0x54>
    16e8:	4d14      	ldr	r5, [pc, #80]	; (173c <stop+0x60>)
    16ea:	447d      	add	r5, pc
    16ec:	792a      	ldrb	r2, [r5, #4]
    16ee:	b1fa      	cbz	r2, 1730 <stop+0x54>
    16f0:	4c10      	ldr	r4, [pc, #64]	; (1734 <stop+0x58>)
    16f2:	6818      	ldr	r0, [r3, #0]
    16f4:	f8d4 20c4 	ldr.w	r2, [r4, #196]	; 0xc4
    16f8:	4e11      	ldr	r6, [pc, #68]	; (1740 <stop+0x64>)
    16fa:	2700      	movs	r7, #0
    16fc:	711f      	strb	r7, [r3, #4]
    16fe:	712f      	strb	r7, [r5, #4]
    1700:	4790      	blx	r2
    1702:	6828      	ldr	r0, [r5, #0]
    1704:	f8d4 30c4 	ldr.w	r3, [r4, #196]	; 0xc4
    1708:	4798      	blx	r3
    170a:	447e      	add	r6, pc
    170c:	2503      	movs	r5, #3
    170e:	f856 0b04 	ldr.w	r0, [r6], #4
    1712:	b120      	cbz	r0, 171e <stop+0x42>
    1714:	f8d4 30bc 	ldr.w	r3, [r4, #188]	; 0xbc
    1718:	4798      	blx	r3
    171a:	f846 7c04 	str.w	r7, [r6, #-4]
    171e:	3d01      	subs	r5, #1
    1720:	d1f5      	bne.n	170e <stop+0x32>
    1722:	4808      	ldr	r0, [pc, #32]	; (1744 <stop+0x68>)
    1724:	f8d4 30b4 	ldr.w	r3, [r4, #180]	; 0xb4
    1728:	4478      	add	r0, pc
    172a:	e8bd 41f0 	ldmia.w	sp!, {r4, r5, r6, r7, r8, lr}
    172e:	4718      	bx	r3
    1730:	e8bd 81f0 	ldmia.w	sp!, {r4, r5, r6, r7, r8, pc}
    1734:	1000f800 	andne	pc, r0, r0, lsl #16
    1738:	ffffee2a 			; <UNDEFINED> instruction: 0xffffee2a
    173c:	ffffee6a 			; <UNDEFINED> instruction: 0xffffee6a
    1740:	ffffedae 			; <UNDEFINED> instruction: 0xffffedae
    1744:	fffff594 			; <UNDEFINED> instruction: 0xfffff594

Disassembly of section .text.map_value:

00001748 <map_value>:
    1748:	eef4 0a41 	vcmp.f32	s1, s2
    174c:	eef1 fa10 	vmrs	APSR_nzcv, fpscr
    1750:	d019      	beq.n	1786 <map_value+0x3e>
    1752:	ee30 0a60 	vsub.f32	s0, s0, s1
    1756:	ee31 1a60 	vsub.f32	s2, s2, s1
    175a:	ee32 7a61 	vsub.f32	s14, s4, s3
    175e:	eec0 6a01 	vdiv.f32	s13, s0, s2
    1762:	eef0 7a61 	vmov.f32	s15, s3
    1766:	eee6 7a87 	vfma.f32	s15, s13, s14
    176a:	eef4 1ae7 	vcmpe.f32	s3, s15
    176e:	eef1 fa10 	vmrs	APSR_nzcv, fpscr
    1772:	dc08      	bgt.n	1786 <map_value+0x3e>
    1774:	eeb4 2ae7 	vcmpe.f32	s4, s15
    1778:	eef1 fa10 	vmrs	APSR_nzcv, fpscr
    177c:	bf54      	ite	pl
    177e:	eef0 1a67 	vmovpl.f32	s3, s15
    1782:	eef0 1a42 	vmovmi.f32	s3, s4
    1786:	eeb0 0a61 	vmov.f32	s0, s3
    178a:	4770      	bx	lr

Disassembly of section .text.update_spwm_settings:

0000178c <update_spwm_settings>:
    178c:	4b69      	ldr	r3, [pc, #420]	; (1934 <update_spwm_settings+0x1a8>)
    178e:	486a      	ldr	r0, [pc, #424]	; (1938 <update_spwm_settings+0x1ac>)
    1790:	4a6a      	ldr	r2, [pc, #424]	; (193c <update_spwm_settings+0x1b0>)
    1792:	447b      	add	r3, pc
    1794:	edd3 7a00 	vldr	s15, [r3]
    1798:	4b69      	ldr	r3, [pc, #420]	; (1940 <update_spwm_settings+0x1b4>)
    179a:	447b      	add	r3, pc
    179c:	edd3 6a00 	vldr	s13, [r3]
    17a0:	4b68      	ldr	r3, [pc, #416]	; (1944 <update_spwm_settings+0x1b8>)
    17a2:	eef8 7ae7 	vcvt.f32.s32	s15, s15
    17a6:	b570      	push	{r4, r5, r6, lr}
    17a8:	ee86 7aa7 	vdiv.f32	s14, s13, s15
    17ac:	4478      	add	r0, pc
    17ae:	447b      	add	r3, pc
    17b0:	447a      	add	r2, pc
    17b2:	ed2d 8b02 	vpush	{d8}
    17b6:	ed93 8a00 	vldr	s16, [r3]
    17ba:	6803      	ldr	r3, [r0, #0]
    17bc:	eddf 6a57 	vldr	s13, [pc, #348]	; 191c <update_spwm_settings+0x190>
    17c0:	eb02 0183 	add.w	r1, r2, r3, lsl #2
    17c4:	ed81 7a00 	vstr	s14, [r1]
    17c8:	edd2 7a00 	vldr	s15, [r2]
    17cc:	ee77 7aa6 	vadd.f32	s15, s15, s13
    17d0:	edd2 6a01 	vldr	s13, [r2, #4]
    17d4:	ee77 7aa6 	vadd.f32	s15, s15, s13
    17d8:	edd2 6a02 	vldr	s13, [r2, #8]
    17dc:	ee77 7aa6 	vadd.f32	s15, s15, s13
    17e0:	edd2 6a03 	vldr	s13, [r2, #12]
    17e4:	ee77 7aa6 	vadd.f32	s15, s15, s13
    17e8:	edd2 6a04 	vldr	s13, [r2, #16]
    17ec:	ee77 7aa6 	vadd.f32	s15, s15, s13
    17f0:	eeb1 6a04 	vmov.f32	s12, #20	; 0x40a00000  5.0
    17f4:	eec7 6a86 	vdiv.f32	s13, s15, s12
    17f8:	3301      	adds	r3, #1
    17fa:	2105      	movs	r1, #5
    17fc:	fb93 f1f1 	sdiv	r1, r3, r1
    1800:	eb01 0181 	add.w	r1, r1, r1, lsl #2
    1804:	1a5b      	subs	r3, r3, r1
    1806:	b08e      	sub	sp, #56	; 0x38
    1808:	6003      	str	r3, [r0, #0]
    180a:	ed9f 6a45 	vldr	s12, [pc, #276]	; 1920 <update_spwm_settings+0x194>
    180e:	ee76 7ac7 	vsub.f32	s15, s13, s14
    1812:	ee27 8a08 	vmul.f32	s16, s14, s16
    1816:	eef5 7ac0 	vcmpe.f32	s15, #0.0
    181a:	eef1 fa10 	vmrs	APSR_nzcv, fpscr
    181e:	bf48      	it	mi
    1820:	eef1 7a67 	vnegmi.f32	s15, s15
    1824:	eef4 7ac6 	vcmpe.f32	s15, s12
    1828:	eef1 fa10 	vmrs	APSR_nzcv, fpscr
    182c:	d864      	bhi.n	18f8 <update_spwm_settings+0x16c>
    182e:	4b46      	ldr	r3, [pc, #280]	; (1948 <update_spwm_settings+0x1bc>)
    1830:	2201      	movs	r2, #1
    1832:	447b      	add	r3, pc
    1834:	4c45      	ldr	r4, [pc, #276]	; (194c <update_spwm_settings+0x1c0>)
    1836:	ed9f 2a3b 	vldr	s4, [pc, #236]	; 1924 <update_spwm_settings+0x198>
    183a:	eddf 1a38 	vldr	s3, [pc, #224]	; 191c <update_spwm_settings+0x190>
    183e:	ed9f 1a3a 	vldr	s2, [pc, #232]	; 1928 <update_spwm_settings+0x19c>
    1842:	701a      	strb	r2, [r3, #0]
    1844:	447c      	add	r4, pc
    1846:	ed94 0a00 	vldr	s0, [r4]
    184a:	4d41      	ldr	r5, [pc, #260]	; (1950 <update_spwm_settings+0x1c4>)
    184c:	4e41      	ldr	r6, [pc, #260]	; (1954 <update_spwm_settings+0x1c8>)
    184e:	eef0 0a08 	vmov.f32	s1, #8	; 0x40400000  3.0
    1852:	f7ff ff79 	bl	1748 <map_value>
    1856:	447d      	add	r5, pc
    1858:	ed85 0a00 	vstr	s0, [r5]
    185c:	ed9f 1a33 	vldr	s2, [pc, #204]	; 192c <update_spwm_settings+0x1a0>
    1860:	eeb0 2a08 	vmov.f32	s4, #8	; 0x40400000  3.0
    1864:	eef7 1a00 	vmov.f32	s3, #112	; 0x3f800000  1.0
    1868:	eef1 0a04 	vmov.f32	s1, #20	; 0x40a00000  5.0
    186c:	eeb0 0a48 	vmov.f32	s0, s16
    1870:	f7ff ff6a 	bl	1748 <map_value>
    1874:	edd5 7a00 	vldr	s15, [r5]
    1878:	ed9f 7a2d 	vldr	s14, [pc, #180]	; 1930 <update_spwm_settings+0x1a4>
    187c:	4b36      	ldr	r3, [pc, #216]	; (1958 <update_spwm_settings+0x1cc>)
    187e:	4937      	ldr	r1, [pc, #220]	; (195c <update_spwm_settings+0x1d0>)
    1880:	edd4 0a00 	vldr	s1, [r4]
    1884:	ee77 7a87 	vadd.f32	s15, s15, s14
    1888:	447b      	add	r3, pc
    188a:	ee27 0a80 	vmul.f32	s0, s15, s0
    188e:	edd3 7a00 	vldr	s15, [r3]
    1892:	4b33      	ldr	r3, [pc, #204]	; (1960 <update_spwm_settings+0x1d4>)
    1894:	ed85 0a00 	vstr	s0, [r5]
    1898:	447b      	add	r3, pc
    189a:	ed93 0a00 	vldr	s0, [r3]
    189e:	eef8 7ae7 	vcvt.f32.s32	s15, s15
    18a2:	466c      	mov	r4, sp
    18a4:	4479      	add	r1, pc
    18a6:	4620      	mov	r0, r4
    18a8:	ee80 0a27 	vdiv.f32	s0, s0, s15
    18ac:	f000 fac6 	bl	1e3c <GetSpeedRangeAtRPM>
    18b0:	cc0f      	ldmia	r4!, {r0, r1, r2, r3}
    18b2:	447e      	add	r6, pc
    18b4:	4635      	mov	r5, r6
    18b6:	c50f      	stmia	r5!, {r0, r1, r2, r3}
    18b8:	cc0f      	ldmia	r4!, {r0, r1, r2, r3}
    18ba:	c50f      	stmia	r5!, {r0, r1, r2, r3}
    18bc:	cc0f      	ldmia	r4!, {r0, r1, r2, r3}
    18be:	c50f      	stmia	r5!, {r0, r1, r2, r3}
    18c0:	4b28      	ldr	r3, [pc, #160]	; (1964 <update_spwm_settings+0x1d8>)
    18c2:	447b      	add	r3, pc
    18c4:	e894 0003 	ldmia.w	r4, {r0, r1}
    18c8:	781b      	ldrb	r3, [r3, #0]
    18ca:	2b01      	cmp	r3, #1
    18cc:	e885 0003 	stmia.w	r5, {r0, r1}
    18d0:	d01f      	beq.n	1912 <update_spwm_settings+0x186>
    18d2:	2b02      	cmp	r3, #2
    18d4:	d01f      	beq.n	1916 <update_spwm_settings+0x18a>
    18d6:	b95b      	cbnz	r3, 18f0 <update_spwm_settings+0x164>
    18d8:	3608      	adds	r6, #8
    18da:	4b23      	ldr	r3, [pc, #140]	; (1968 <update_spwm_settings+0x1dc>)
    18dc:	edd6 7a01 	vldr	s15, [r6, #4]
    18e0:	447b      	add	r3, pc
    18e2:	eef8 7ae7 	vcvt.f32.s32	s15, s15
    18e6:	f04f 527e 	mov.w	r2, #1065353216	; 0x3f800000
    18ea:	edc3 7a02 	vstr	s15, [r3, #8]
    18ee:	611a      	str	r2, [r3, #16]
    18f0:	b00e      	add	sp, #56	; 0x38
    18f2:	ecbd 8b02 	vpop	{d8}
    18f6:	bd70      	pop	{r4, r5, r6, pc}
    18f8:	eeb4 7ae6 	vcmpe.f32	s14, s13
    18fc:	eef1 fa10 	vmrs	APSR_nzcv, fpscr
    1900:	dd03      	ble.n	190a <update_spwm_settings+0x17e>
    1902:	4b1a      	ldr	r3, [pc, #104]	; (196c <update_spwm_settings+0x1e0>)
    1904:	2200      	movs	r2, #0
    1906:	447b      	add	r3, pc
    1908:	e794      	b.n	1834 <update_spwm_settings+0xa8>
    190a:	4b19      	ldr	r3, [pc, #100]	; (1970 <update_spwm_settings+0x1e4>)
    190c:	2202      	movs	r2, #2
    190e:	447b      	add	r3, pc
    1910:	e790      	b.n	1834 <update_spwm_settings+0xa8>
    1912:	3618      	adds	r6, #24
    1914:	e7e1      	b.n	18da <update_spwm_settings+0x14e>
    1916:	3628      	adds	r6, #40	; 0x28
    1918:	e7df      	b.n	18da <update_spwm_settings+0x14e>
    191a:	bf00      	nop
    191c:	00000000 	andeq	r0, r0, r0
    1920:	3dcccccd 	stclcc	12, cr12, [ip, #820]	; 0x334
    1924:	3eb33333 	mrccc	3, 5, r3, cr3, cr3, {1}
    1928:	42f00000 	rscsmi	r0, r0, #0
    192c:	42200000 	eormi	r0, r0, #0
    1930:	3da3d70a 	stccc	7, cr13, [r3, #40]!	; 0x28
    1934:	ffffedbe 			; <UNDEFINED> instruction: 0xffffedbe
    1938:	ffffed00 			; <UNDEFINED> instruction: 0xffffed00
    193c:	ffffedb0 			; <UNDEFINED> instruction: 0xffffedb0
    1940:	ffffeda6 			; <UNDEFINED> instruction: 0xffffeda6
    1944:	ffffe966 			; <UNDEFINED> instruction: 0xffffe966
    1948:	ffffe8a6 			; <UNDEFINED> instruction: 0xffffe8a6
    194c:	ffffecf4 			; <UNDEFINED> instruction: 0xffffecf4
    1950:	ffffec5a 			; <UNDEFINED> instruction: 0xffffec5a
    1954:	ffffe82a 			; <UNDEFINED> instruction: 0xffffe82a
    1958:	ffffecc8 			; <UNDEFINED> instruction: 0xffffecc8
    195c:	ffffe870 			; <UNDEFINED> instruction: 0xffffe870
    1960:	ffffeca8 			; <UNDEFINED> instruction: 0xffffeca8
    1964:	ffffe816 			; <UNDEFINED> instruction: 0xffffe816
    1968:	ffffec10 			; <UNDEFINED> instruction: 0xffffec10
    196c:	ffffe7d2 			; <UNDEFINED> instruction: 0xffffe7d2
    1970:	ffffe7ca 			; <UNDEFINED> instruction: 0xffffe7ca

Disassembly of section .text.ext_set_motor_current:

00001974 <ext_set_motor_current>:
    1974:	2901      	cmp	r1, #1
    1976:	b538      	push	{r3, r4, r5, lr}
    1978:	4c1a      	ldr	r4, [pc, #104]	; (19e4 <ext_set_motor_current+0x70>)
    197a:	4605      	mov	r5, r0
    197c:	d002      	beq.n	1984 <ext_set_motor_current+0x10>
    197e:	f8d4 0094 	ldr.w	r0, [r4, #148]	; 0x94
    1982:	bd38      	pop	{r3, r4, r5, pc}
    1984:	6fe3      	ldr	r3, [r4, #124]	; 0x7c
    1986:	6800      	ldr	r0, [r0, #0]
    1988:	4798      	blx	r3
    198a:	2800      	cmp	r0, #0
    198c:	d0f7      	beq.n	197e <ext_set_motor_current+0xa>
    198e:	6828      	ldr	r0, [r5, #0]
    1990:	6de3      	ldr	r3, [r4, #92]	; 0x5c
    1992:	4798      	blx	r3
    1994:	4915      	ldr	r1, [pc, #84]	; (19ec <ext_set_motor_current+0x78>)
    1996:	4a16      	ldr	r2, [pc, #88]	; (19f0 <ext_set_motor_current+0x7c>)
    1998:	eddf 7a13 	vldr	s15, [pc, #76]	; 19e8 <ext_set_motor_current+0x74>
    199c:	4479      	add	r1, pc
    199e:	447a      	add	r2, pc
    19a0:	680b      	ldr	r3, [r1, #0]
    19a2:	eb02 0083 	add.w	r0, r2, r3, lsl #2
    19a6:	ed80 0a00 	vstr	s0, [r0]
    19aa:	3301      	adds	r3, #1
    19ac:	200a      	movs	r0, #10
    19ae:	fb93 f5f0 	sdiv	r5, r3, r0
    19b2:	fb00 3315 	mls	r3, r0, r5, r3
    19b6:	600b      	str	r3, [r1, #0]
    19b8:	4613      	mov	r3, r2
    19ba:	2200      	movs	r2, #0
    19bc:	ecb3 7a01 	vldmia	r3!, {s14}
    19c0:	3201      	adds	r2, #1
    19c2:	2a0a      	cmp	r2, #10
    19c4:	ee77 7a87 	vadd.f32	s15, s15, s14
    19c8:	d1f8      	bne.n	19bc <ext_set_motor_current+0x48>
    19ca:	eef2 6a04 	vmov.f32	s13, #36	; 0x41200000  10.0
    19ce:	ee87 7aa6 	vdiv.f32	s14, s15, s13
    19d2:	4b08      	ldr	r3, [pc, #32]	; (19f4 <ext_set_motor_current+0x80>)
    19d4:	447b      	add	r3, pc
    19d6:	ed83 7a00 	vstr	s14, [r3]
    19da:	f7ff fed7 	bl	178c <update_spwm_settings>
    19de:	f8d4 008c 	ldr.w	r0, [r4, #140]	; 0x8c
    19e2:	e7ce      	b.n	1982 <ext_set_motor_current+0xe>
    19e4:	1000f800 	andne	pc, r0, r0, lsl #16
    19e8:	00000000 	andeq	r0, r0, r0
    19ec:	ffffeb08 			; <UNDEFINED> instruction: 0xffffeb08
    19f0:	ffffeb2a 			; <UNDEFINED> instruction: 0xffffeb2a
    19f4:	ffffeb64 			; <UNDEFINED> instruction: 0xffffeb64

Disassembly of section .text.ext_set_motor_hz:

000019f8 <ext_set_motor_hz>:
    19f8:	2901      	cmp	r1, #1
    19fa:	b538      	push	{r3, r4, r5, lr}
    19fc:	4c1a      	ldr	r4, [pc, #104]	; (1a68 <ext_set_motor_hz+0x70>)
    19fe:	4605      	mov	r5, r0
    1a00:	d002      	beq.n	1a08 <ext_set_motor_hz+0x10>
    1a02:	f8d4 0094 	ldr.w	r0, [r4, #148]	; 0x94
    1a06:	bd38      	pop	{r3, r4, r5, pc}
    1a08:	6fe3      	ldr	r3, [r4, #124]	; 0x7c
    1a0a:	6800      	ldr	r0, [r0, #0]
    1a0c:	4798      	blx	r3
    1a0e:	2800      	cmp	r0, #0
    1a10:	d0f7      	beq.n	1a02 <ext_set_motor_hz+0xa>
    1a12:	6828      	ldr	r0, [r5, #0]
    1a14:	6de3      	ldr	r3, [r4, #92]	; 0x5c
    1a16:	4798      	blx	r3
    1a18:	4915      	ldr	r1, [pc, #84]	; (1a70 <ext_set_motor_hz+0x78>)
    1a1a:	4a16      	ldr	r2, [pc, #88]	; (1a74 <ext_set_motor_hz+0x7c>)
    1a1c:	eddf 7a13 	vldr	s15, [pc, #76]	; 1a6c <ext_set_motor_hz+0x74>
    1a20:	4479      	add	r1, pc
    1a22:	447a      	add	r2, pc
    1a24:	680b      	ldr	r3, [r1, #0]
    1a26:	eb02 0083 	add.w	r0, r2, r3, lsl #2
    1a2a:	ed80 0a00 	vstr	s0, [r0]
    1a2e:	3301      	adds	r3, #1
    1a30:	200a      	movs	r0, #10
    1a32:	fb93 f5f0 	sdiv	r5, r3, r0
    1a36:	fb00 3315 	mls	r3, r0, r5, r3
    1a3a:	600b      	str	r3, [r1, #0]
    1a3c:	4613      	mov	r3, r2
    1a3e:	2200      	movs	r2, #0
    1a40:	ecb3 7a01 	vldmia	r3!, {s14}
    1a44:	3201      	adds	r2, #1
    1a46:	2a0a      	cmp	r2, #10
    1a48:	ee77 7a87 	vadd.f32	s15, s15, s14
    1a4c:	d1f8      	bne.n	1a40 <ext_set_motor_hz+0x48>
    1a4e:	eef2 6a04 	vmov.f32	s13, #36	; 0x41200000  10.0
    1a52:	ee87 7aa6 	vdiv.f32	s14, s15, s13
    1a56:	4b08      	ldr	r3, [pc, #32]	; (1a78 <ext_set_motor_hz+0x80>)
    1a58:	447b      	add	r3, pc
    1a5a:	ed83 7a00 	vstr	s14, [r3]
    1a5e:	f7ff fe95 	bl	178c <update_spwm_settings>
    1a62:	f8d4 008c 	ldr.w	r0, [r4, #140]	; 0x8c
    1a66:	e7ce      	b.n	1a06 <ext_set_motor_hz+0xe>
    1a68:	1000f800 	andne	pc, r0, r0, lsl #16
    1a6c:	00000000 	andeq	r0, r0, r0
    1a70:	ffffea88 			; <UNDEFINED> instruction: 0xffffea88
    1a74:	ffffeaee 			; <UNDEFINED> instruction: 0xffffeaee
    1a78:	ffffeae8 			; <UNDEFINED> instruction: 0xffffeae8

Disassembly of section .text.ext_set_motor_poles:

00001a7c <ext_set_motor_poles>:
    1a7c:	2901      	cmp	r1, #1
    1a7e:	b538      	push	{r3, r4, r5, lr}
    1a80:	4c0c      	ldr	r4, [pc, #48]	; (1ab4 <ext_set_motor_poles+0x38>)
    1a82:	4605      	mov	r5, r0
    1a84:	d002      	beq.n	1a8c <ext_set_motor_poles+0x10>
    1a86:	f8d4 0094 	ldr.w	r0, [r4, #148]	; 0x94
    1a8a:	bd38      	pop	{r3, r4, r5, pc}
    1a8c:	6fe3      	ldr	r3, [r4, #124]	; 0x7c
    1a8e:	6800      	ldr	r0, [r0, #0]
    1a90:	4798      	blx	r3
    1a92:	2800      	cmp	r0, #0
    1a94:	d0f7      	beq.n	1a86 <ext_set_motor_poles+0xa>
    1a96:	6828      	ldr	r0, [r5, #0]
    1a98:	6de3      	ldr	r3, [r4, #92]	; 0x5c
    1a9a:	4798      	blx	r3
    1a9c:	4b06      	ldr	r3, [pc, #24]	; (1ab8 <ext_set_motor_poles+0x3c>)
    1a9e:	eebd 0ac0 	vcvt.s32.f32	s0, s0
    1aa2:	447b      	add	r3, pc
    1aa4:	ed83 0a00 	vstr	s0, [r3]
    1aa8:	f7ff fe70 	bl	178c <update_spwm_settings>
    1aac:	f8d4 008c 	ldr.w	r0, [r4, #140]	; 0x8c
    1ab0:	e7eb      	b.n	1a8a <ext_set_motor_poles+0xe>
    1ab2:	bf00      	nop
    1ab4:	1000f800 	andne	pc, r0, r0, lsl #16
    1ab8:	ffffeaae 			; <UNDEFINED> instruction: 0xffffeaae

Disassembly of section .text.wheel_diameter_to_kmh_factor:

00001abc <wheel_diameter_to_kmh_factor>:
    1abc:	eddf 7a06 	vldr	s15, [pc, #24]	; 1ad8 <wheel_diameter_to_kmh_factor+0x1c>
    1ac0:	ee20 0a27 	vmul.f32	s0, s0, s15
    1ac4:	eddf 7a05 	vldr	s15, [pc, #20]	; 1adc <wheel_diameter_to_kmh_factor+0x20>
    1ac8:	ee20 0a27 	vmul.f32	s0, s0, s15
    1acc:	eddf 7a04 	vldr	s15, [pc, #16]	; 1ae0 <wheel_diameter_to_kmh_factor+0x24>
    1ad0:	ee20 0a27 	vmul.f32	s0, s0, s15
    1ad4:	4770      	bx	lr
    1ad6:	bf00      	nop
    1ad8:	40490fdb 	ldrdmi	r0, [r9], #-251	; 0xffffff05
    1adc:	358637bd 	strcc	r3, [r6, #1981]	; 0x7bd
    1ae0:	42700000 	rsbsmi	r0, r0, #0

Disassembly of section .text.AddSPWM_AsyncFixed:

00001ae4 <AddSPWM_AsyncFixed>:
    1ae4:	2201      	movs	r2, #1
    1ae6:	7002      	strb	r2, [r0, #0]
    1ae8:	2200      	movs	r2, #0
    1aea:	e9c0 1101 	strd	r1, r1, [r0, #4]
    1aee:	60c2      	str	r2, [r0, #12]
    1af0:	4770      	bx	lr

Disassembly of section .text.AddSPWM_AsyncRamp:

00001af2 <AddSPWM_AsyncRamp>:
    1af2:	b510      	push	{r4, lr}
    1af4:	e9c0 1201 	strd	r1, r2, [r0, #4]
    1af8:	2402      	movs	r4, #2
    1afa:	2200      	movs	r2, #0
    1afc:	7004      	strb	r4, [r0, #0]
    1afe:	60c2      	str	r2, [r0, #12]
    1b00:	bd10      	pop	{r4, pc}

Disassembly of section .text.SetSPWM_Acceleration:

00001b02 <SetSPWM_Acceleration>:
    1b02:	b082      	sub	sp, #8
    1b04:	b510      	push	{r4, lr}
    1b06:	290f      	cmp	r1, #15
    1b08:	ac02      	add	r4, sp, #8
    1b0a:	e884 000c 	stmia.w	r4, {r2, r3}
    1b0e:	dc08      	bgt.n	1b22 <SetSPWM_Acceleration+0x20>
    1b10:	2438      	movs	r4, #56	; 0x38
    1b12:	fb04 0001 	mla	r0, r4, r1, r0
    1b16:	ab02      	add	r3, sp, #8
    1b18:	f100 0414 	add.w	r4, r0, #20
    1b1c:	cb0f      	ldmia	r3, {r0, r1, r2, r3}
    1b1e:	e884 000f 	stmia.w	r4, {r0, r1, r2, r3}
    1b22:	e8bd 4010 	ldmia.w	sp!, {r4, lr}
    1b26:	b002      	add	sp, #8
    1b28:	4770      	bx	lr

Disassembly of section .text.SetSPWM_Coasting:

00001b2a <SetSPWM_Coasting>:
    1b2a:	b082      	sub	sp, #8
    1b2c:	b510      	push	{r4, lr}
    1b2e:	290f      	cmp	r1, #15
    1b30:	ac02      	add	r4, sp, #8
    1b32:	e884 000c 	stmia.w	r4, {r2, r3}
    1b36:	dc08      	bgt.n	1b4a <SetSPWM_Coasting+0x20>
    1b38:	2438      	movs	r4, #56	; 0x38
    1b3a:	fb04 0001 	mla	r0, r4, r1, r0
    1b3e:	ab02      	add	r3, sp, #8
    1b40:	f100 0424 	add.w	r4, r0, #36	; 0x24
    1b44:	cb0f      	ldmia	r3, {r0, r1, r2, r3}
    1b46:	e884 000f 	stmia.w	r4, {r0, r1, r2, r3}
    1b4a:	e8bd 4010 	ldmia.w	sp!, {r4, lr}
    1b4e:	b002      	add	sp, #8
    1b50:	4770      	bx	lr

Disassembly of section .text.SetSPWM_Deceleration:

00001b52 <SetSPWM_Deceleration>:
    1b52:	b082      	sub	sp, #8
    1b54:	b510      	push	{r4, lr}
    1b56:	290f      	cmp	r1, #15
    1b58:	ac02      	add	r4, sp, #8
    1b5a:	e884 000c 	stmia.w	r4, {r2, r3}
    1b5e:	dc08      	bgt.n	1b72 <SetSPWM_Deceleration+0x20>
    1b60:	2438      	movs	r4, #56	; 0x38
    1b62:	fb04 0001 	mla	r0, r4, r1, r0
    1b66:	ab02      	add	r3, sp, #8
    1b68:	f100 0434 	add.w	r4, r0, #52	; 0x34
    1b6c:	cb0f      	ldmia	r3, {r0, r1, r2, r3}
    1b6e:	e884 000f 	stmia.w	r4, {r0, r1, r2, r3}
    1b72:	e8bd 4010 	ldmia.w	sp!, {r4, lr}
    1b76:	b002      	add	sp, #8
    1b78:	4770      	bx	lr

Disassembly of section .text.SetSpeedRangeSpeed:

00001b7a <SetSpeedRangeSpeed>:
    1b7a:	290f      	cmp	r1, #15
    1b7c:	dc0b      	bgt.n	1b96 <SetSpeedRangeSpeed+0x1c>
    1b7e:	2338      	movs	r3, #56	; 0x38
    1b80:	fb03 0101 	mla	r1, r3, r1, r0
    1b84:	f8d0 338c 	ldr.w	r3, [r0, #908]	; 0x38c
    1b88:	ed81 0a03 	vstr	s0, [r1, #12]
    1b8c:	3301      	adds	r3, #1
    1b8e:	edc1 0a04 	vstr	s1, [r1, #16]
    1b92:	f8c0 338c 	str.w	r3, [r0, #908]	; 0x38c
    1b96:	4770      	bx	lr

Disassembly of section .text.InitializeConfiguration:

00001b98 <InitializeConfiguration>:
    1b98:	b5f0      	push	{r4, r5, r6, r7, lr}
    1b9a:	4ba4      	ldr	r3, [pc, #656]	; (1e2c <InitializeConfiguration+0x294>)
    1b9c:	6043      	str	r3, [r0, #4]
    1b9e:	b08b      	sub	sp, #44	; 0x2c
    1ba0:	ed9f 0aa3 	vldr	s0, [pc, #652]	; 1e30 <InitializeConfiguration+0x298>
    1ba4:	4606      	mov	r6, r0
    1ba6:	f7ff ff89 	bl	1abc <wheel_diameter_to_kmh_factor>
    1baa:	ac02      	add	r4, sp, #8
    1bac:	f04f 537e 	mov.w	r3, #1065353216	; 0x3f800000
    1bb0:	ad04      	add	r5, sp, #16
    1bb2:	ed86 0a00 	vstr	s0, [r6]
    1bb6:	60b3      	str	r3, [r6, #8]
    1bb8:	4620      	mov	r0, r4
    1bba:	f240 41d3 	movw	r1, #1235	; 0x4d3
    1bbe:	f7ff ff91 	bl	1ae4 <AddSPWM_AsyncFixed>
    1bc2:	e895 0003 	ldmia.w	r5, {r0, r1}
    1bc6:	e88d 0003 	stmia.w	sp, {r0, r1}
    1bca:	4630      	mov	r0, r6
    1bcc:	e894 000c 	ldmia.w	r4, {r2, r3}
    1bd0:	2100      	movs	r1, #0
    1bd2:	f7ff ff96 	bl	1b02 <SetSPWM_Acceleration>
    1bd6:	e895 0003 	ldmia.w	r5, {r0, r1}
    1bda:	e88d 0003 	stmia.w	sp, {r0, r1}
    1bde:	af06      	add	r7, sp, #24
    1be0:	e894 000c 	ldmia.w	r4, {r2, r3}
    1be4:	4630      	mov	r0, r6
    1be6:	2100      	movs	r1, #0
    1be8:	f7ff ff9f 	bl	1b2a <SetSPWM_Coasting>
    1bec:	4638      	mov	r0, r7
    1bee:	f44f 62fa 	mov.w	r2, #2000	; 0x7d0
    1bf2:	f44f 717a 	mov.w	r1, #1000	; 0x3e8
    1bf6:	f7ff ff7c 	bl	1af2 <AddSPWM_AsyncRamp>
    1bfa:	ab0a      	add	r3, sp, #40	; 0x28
    1bfc:	e913 0003 	ldmdb	r3, {r0, r1}
    1c00:	e88d 0003 	stmia.w	sp, {r0, r1}
    1c04:	4630      	mov	r0, r6
    1c06:	e897 000c 	ldmia.w	r7, {r2, r3}
    1c0a:	2100      	movs	r1, #0
    1c0c:	f7ff ffa1 	bl	1b52 <SetSPWM_Deceleration>
    1c10:	ed9f 0a88 	vldr	s0, [pc, #544]	; 1e34 <InitializeConfiguration+0x29c>
    1c14:	eef1 0a00 	vmov.f32	s1, #16	; 0x40800000  4.0
    1c18:	4630      	mov	r0, r6
    1c1a:	2100      	movs	r1, #0
    1c1c:	f7ff ffad 	bl	1b7a <SetSpeedRangeSpeed>
    1c20:	4620      	mov	r0, r4
    1c22:	f240 41a6 	movw	r1, #1190	; 0x4a6
    1c26:	f7ff ff5d 	bl	1ae4 <AddSPWM_AsyncFixed>
    1c2a:	e895 0003 	ldmia.w	r5, {r0, r1}
    1c2e:	e88d 0003 	stmia.w	sp, {r0, r1}
    1c32:	4630      	mov	r0, r6
    1c34:	e894 000c 	ldmia.w	r4, {r2, r3}
    1c38:	2101      	movs	r1, #1
    1c3a:	f7ff ff62 	bl	1b02 <SetSPWM_Acceleration>
    1c3e:	e895 0003 	ldmia.w	r5, {r0, r1}
    1c42:	e88d 0003 	stmia.w	sp, {r0, r1}
    1c46:	4630      	mov	r0, r6
    1c48:	e894 000c 	ldmia.w	r4, {r2, r3}
    1c4c:	2101      	movs	r1, #1
    1c4e:	f7ff ff6c 	bl	1b2a <SetSPWM_Coasting>
    1c52:	e895 0003 	ldmia.w	r5, {r0, r1}
    1c56:	e88d 0003 	stmia.w	sp, {r0, r1}
    1c5a:	4630      	mov	r0, r6
    1c5c:	e894 000c 	ldmia.w	r4, {r2, r3}
    1c60:	2101      	movs	r1, #1
    1c62:	f7ff ff76 	bl	1b52 <SetSPWM_Deceleration>
    1c66:	eef2 0a00 	vmov.f32	s1, #32	; 0x41000000  8.0
    1c6a:	eeb1 0a00 	vmov.f32	s0, #16	; 0x40800000  4.0
    1c6e:	4630      	mov	r0, r6
    1c70:	2101      	movs	r1, #1
    1c72:	f7ff ff82 	bl	1b7a <SetSpeedRangeSpeed>
    1c76:	4620      	mov	r0, r4
    1c78:	f240 41ba 	movw	r1, #1210	; 0x4ba
    1c7c:	f7ff ff32 	bl	1ae4 <AddSPWM_AsyncFixed>
    1c80:	e895 0003 	ldmia.w	r5, {r0, r1}
    1c84:	e88d 0003 	stmia.w	sp, {r0, r1}
    1c88:	4630      	mov	r0, r6
    1c8a:	e894 000c 	ldmia.w	r4, {r2, r3}
    1c8e:	2102      	movs	r1, #2
    1c90:	f7ff ff37 	bl	1b02 <SetSPWM_Acceleration>
    1c94:	e895 0003 	ldmia.w	r5, {r0, r1}
    1c98:	e88d 0003 	stmia.w	sp, {r0, r1}
    1c9c:	4630      	mov	r0, r6
    1c9e:	e894 000c 	ldmia.w	r4, {r2, r3}
    1ca2:	2102      	movs	r1, #2
    1ca4:	f7ff ff41 	bl	1b2a <SetSPWM_Coasting>
    1ca8:	e895 0003 	ldmia.w	r5, {r0, r1}
    1cac:	e88d 0003 	stmia.w	sp, {r0, r1}
    1cb0:	4630      	mov	r0, r6
    1cb2:	e894 000c 	ldmia.w	r4, {r2, r3}
    1cb6:	2102      	movs	r1, #2
    1cb8:	f7ff ff4b 	bl	1b52 <SetSPWM_Deceleration>
    1cbc:	eef2 0a04 	vmov.f32	s1, #36	; 0x41200000  10.0
    1cc0:	eeb2 0a00 	vmov.f32	s0, #32	; 0x41000000  8.0
    1cc4:	4630      	mov	r0, r6
    1cc6:	2102      	movs	r1, #2
    1cc8:	f7ff ff57 	bl	1b7a <SetSpeedRangeSpeed>
    1ccc:	4620      	mov	r0, r4
    1cce:	f240 41d3 	movw	r1, #1235	; 0x4d3
    1cd2:	f7ff ff07 	bl	1ae4 <AddSPWM_AsyncFixed>
    1cd6:	e895 0003 	ldmia.w	r5, {r0, r1}
    1cda:	e88d 0003 	stmia.w	sp, {r0, r1}
    1cde:	4630      	mov	r0, r6
    1ce0:	e894 000c 	ldmia.w	r4, {r2, r3}
    1ce4:	2103      	movs	r1, #3
    1ce6:	f7ff ff0c 	bl	1b02 <SetSPWM_Acceleration>
    1cea:	e895 0003 	ldmia.w	r5, {r0, r1}
    1cee:	e88d 0003 	stmia.w	sp, {r0, r1}
    1cf2:	4630      	mov	r0, r6
    1cf4:	e894 000c 	ldmia.w	r4, {r2, r3}
    1cf8:	2103      	movs	r1, #3
    1cfa:	f7ff ff16 	bl	1b2a <SetSPWM_Coasting>
    1cfe:	e895 0003 	ldmia.w	r5, {r0, r1}
    1d02:	e88d 0003 	stmia.w	sp, {r0, r1}
    1d06:	4630      	mov	r0, r6
    1d08:	e894 000c 	ldmia.w	r4, {r2, r3}
    1d0c:	2103      	movs	r1, #3
    1d0e:	f7ff ff20 	bl	1b52 <SetSPWM_Deceleration>
    1d12:	eef2 0a0c 	vmov.f32	s1, #44	; 0x41600000  14.0
    1d16:	eeb2 0a04 	vmov.f32	s0, #36	; 0x41200000  10.0
    1d1a:	4630      	mov	r0, r6
    1d1c:	2103      	movs	r1, #3
    1d1e:	f7ff ff2c 	bl	1b7a <SetSpeedRangeSpeed>
    1d22:	4620      	mov	r0, r4
    1d24:	f240 51b4 	movw	r1, #1460	; 0x5b4
    1d28:	f7ff fedc 	bl	1ae4 <AddSPWM_AsyncFixed>
    1d2c:	e895 0003 	ldmia.w	r5, {r0, r1}
    1d30:	e88d 0003 	stmia.w	sp, {r0, r1}
    1d34:	4630      	mov	r0, r6
    1d36:	e894 000c 	ldmia.w	r4, {r2, r3}
    1d3a:	2104      	movs	r1, #4
    1d3c:	f7ff fee1 	bl	1b02 <SetSPWM_Acceleration>
    1d40:	e895 0003 	ldmia.w	r5, {r0, r1}
    1d44:	e88d 0003 	stmia.w	sp, {r0, r1}
    1d48:	4630      	mov	r0, r6
    1d4a:	e894 000c 	ldmia.w	r4, {r2, r3}
    1d4e:	2104      	movs	r1, #4
    1d50:	f7ff feeb 	bl	1b2a <SetSPWM_Coasting>
    1d54:	e895 0003 	ldmia.w	r5, {r0, r1}
    1d58:	e88d 0003 	stmia.w	sp, {r0, r1}
    1d5c:	4630      	mov	r0, r6
    1d5e:	e894 000c 	ldmia.w	r4, {r2, r3}
    1d62:	2104      	movs	r1, #4
    1d64:	f7ff fef5 	bl	1b52 <SetSPWM_Deceleration>
    1d68:	eef3 0a00 	vmov.f32	s1, #48	; 0x41800000  16.0
    1d6c:	eeb2 0a0c 	vmov.f32	s0, #44	; 0x41600000  14.0
    1d70:	4630      	mov	r0, r6
    1d72:	2104      	movs	r1, #4
    1d74:	f7ff ff01 	bl	1b7a <SetSpeedRangeSpeed>
    1d78:	4620      	mov	r0, r4
    1d7a:	f240 41ba 	movw	r1, #1210	; 0x4ba
    1d7e:	f7ff feb1 	bl	1ae4 <AddSPWM_AsyncFixed>
    1d82:	e895 0003 	ldmia.w	r5, {r0, r1}
    1d86:	e88d 0003 	stmia.w	sp, {r0, r1}
    1d8a:	4630      	mov	r0, r6
    1d8c:	e894 000c 	ldmia.w	r4, {r2, r3}
    1d90:	2105      	movs	r1, #5
    1d92:	f7ff feb6 	bl	1b02 <SetSPWM_Acceleration>
    1d96:	e895 0003 	ldmia.w	r5, {r0, r1}
    1d9a:	e88d 0003 	stmia.w	sp, {r0, r1}
    1d9e:	4630      	mov	r0, r6
    1da0:	e894 000c 	ldmia.w	r4, {r2, r3}
    1da4:	2105      	movs	r1, #5
    1da6:	f7ff fec0 	bl	1b2a <SetSPWM_Coasting>
    1daa:	e895 0003 	ldmia.w	r5, {r0, r1}
    1dae:	e88d 0003 	stmia.w	sp, {r0, r1}
    1db2:	4630      	mov	r0, r6
    1db4:	e894 000c 	ldmia.w	r4, {r2, r3}
    1db8:	2105      	movs	r1, #5
    1dba:	f7ff feca 	bl	1b52 <SetSPWM_Deceleration>
    1dbe:	eef3 0a03 	vmov.f32	s1, #51	; 0x41980000  19.0
    1dc2:	eeb3 0a00 	vmov.f32	s0, #48	; 0x41800000  16.0
    1dc6:	4630      	mov	r0, r6
    1dc8:	2105      	movs	r1, #5
    1dca:	f7ff fed6 	bl	1b7a <SetSpeedRangeSpeed>
    1dce:	4620      	mov	r0, r4
    1dd0:	f240 41ce 	movw	r1, #1230	; 0x4ce
    1dd4:	f7ff fe86 	bl	1ae4 <AddSPWM_AsyncFixed>
    1dd8:	e895 0003 	ldmia.w	r5, {r0, r1}
    1ddc:	e88d 0003 	stmia.w	sp, {r0, r1}
    1de0:	4630      	mov	r0, r6
    1de2:	e894 000c 	ldmia.w	r4, {r2, r3}
    1de6:	2106      	movs	r1, #6
    1de8:	f7ff fe8b 	bl	1b02 <SetSPWM_Acceleration>
    1dec:	e895 0003 	ldmia.w	r5, {r0, r1}
    1df0:	e88d 0003 	stmia.w	sp, {r0, r1}
    1df4:	4630      	mov	r0, r6
    1df6:	e894 000c 	ldmia.w	r4, {r2, r3}
    1dfa:	2106      	movs	r1, #6
    1dfc:	f7ff fe95 	bl	1b2a <SetSPWM_Coasting>
    1e00:	e895 0003 	ldmia.w	r5, {r0, r1}
    1e04:	e88d 0003 	stmia.w	sp, {r0, r1}
    1e08:	4630      	mov	r0, r6
    1e0a:	e894 000c 	ldmia.w	r4, {r2, r3}
    1e0e:	2106      	movs	r1, #6
    1e10:	f7ff fe9f 	bl	1b52 <SetSPWM_Deceleration>
    1e14:	eddf 0a08 	vldr	s1, [pc, #32]	; 1e38 <InitializeConfiguration+0x2a0>
    1e18:	eeb3 0a03 	vmov.f32	s0, #51	; 0x41980000  19.0
    1e1c:	2106      	movs	r1, #6
    1e1e:	4630      	mov	r0, r6
    1e20:	b00b      	add	sp, #44	; 0x2c
    1e22:	e8bd 40f0 	ldmia.w	sp!, {r4, r5, r6, r7, lr}
    1e26:	f7ff bea8 	b.w	1b7a <SetSpeedRangeSpeed>
    1e2a:	bf00      	nop
    1e2c:	42c80000 	sbcmi	r0, r8, #0
    1e30:	44098000 	strmi	r8, [r9], #-0
    1e34:	00000000 	andeq	r0, r0, r0
    1e38:	4479c000 	ldrbtmi	ip, [r9], #-0

Disassembly of section .text.GetSpeedRangeAtRPM:

00001e3c <GetSpeedRangeAtRPM>:
    1e3c:	b570      	push	{r4, r5, r6, lr}
    1e3e:	ed2d 8b02 	vpush	{d8}
    1e42:	b08e      	sub	sp, #56	; 0x38
    1e44:	466b      	mov	r3, sp
    1e46:	4606      	mov	r6, r0
    1e48:	460c      	mov	r4, r1
    1e4a:	4618      	mov	r0, r3
    1e4c:	2238      	movs	r2, #56	; 0x38
    1e4e:	2100      	movs	r1, #0
    1e50:	eeb0 8a40 	vmov.f32	s16, s0
    1e54:	eef0 8a60 	vmov.f32	s17, s1
    1e58:	f7fe fd5a 	bl	910 <memset>
    1e5c:	4603      	mov	r3, r0
    1e5e:	b114      	cbz	r4, 1e66 <GetSpeedRangeAtRPM+0x2a>
    1e60:	f8d4 038c 	ldr.w	r0, [r4, #908]	; 0x38c
    1e64:	b990      	cbnz	r0, 1e8c <GetSpeedRangeAtRPM+0x50>
    1e66:	4a27      	ldr	r2, [pc, #156]	; (1f04 <GetSpeedRangeAtRPM+0xc8>)
    1e68:	9201      	str	r2, [sp, #4]
    1e6a:	4635      	mov	r5, r6
    1e6c:	461c      	mov	r4, r3
    1e6e:	cc0f      	ldmia	r4!, {r0, r1, r2, r3}
    1e70:	c50f      	stmia	r5!, {r0, r1, r2, r3}
    1e72:	cc0f      	ldmia	r4!, {r0, r1, r2, r3}
    1e74:	c50f      	stmia	r5!, {r0, r1, r2, r3}
    1e76:	cc0f      	ldmia	r4!, {r0, r1, r2, r3}
    1e78:	c50f      	stmia	r5!, {r0, r1, r2, r3}
    1e7a:	e894 0003 	ldmia.w	r4, {r0, r1}
    1e7e:	e885 0003 	stmia.w	r5, {r0, r1}
    1e82:	4630      	mov	r0, r6
    1e84:	b00e      	add	sp, #56	; 0x38
    1e86:	ecbd 8b02 	vpop	{d8}
    1e8a:	bd70      	pop	{r4, r5, r6, pc}
    1e8c:	ed94 0a00 	vldr	s0, [r4]
    1e90:	edd4 7a01 	vldr	s15, [r4, #4]
    1e94:	ee28 0a00 	vmul.f32	s0, s16, s0
    1e98:	eef4 7a40 	vcmp.f32	s15, s0
    1e9c:	eef1 fa10 	vmrs	APSR_nzcv, fpscr
    1ea0:	bf48      	it	mi
    1ea2:	eeb0 0a67 	vmovmi.f32	s0, s15
    1ea6:	edd4 7a02 	vldr	s15, [r4, #8]
    1eaa:	eef4 7ac0 	vcmpe.f32	s15, s0
    1eae:	eef1 fa10 	vmrs	APSR_nzcv, fpscr
    1eb2:	dd06      	ble.n	1ec2 <GetSpeedRangeAtRPM+0x86>
    1eb4:	eef0 7a08 	vmov.f32	s15, #8	; 0x40400000  3.0
    1eb8:	eef4 8ae7 	vcmpe.f32	s17, s15
    1ebc:	eef1 fa10 	vmrs	APSR_nzcv, fpscr
    1ec0:	d4d1      	bmi.n	1e66 <GetSpeedRangeAtRPM+0x2a>
    1ec2:	4622      	mov	r2, r4
    1ec4:	2100      	movs	r1, #0
    1ec6:	eeb7 7a00 	vmov.f32	s14, #112	; 0x3f800000  1.0
    1eca:	4288      	cmp	r0, r1
    1ecc:	ddcb      	ble.n	1e66 <GetSpeedRangeAtRPM+0x2a>
    1ece:	edd2 7a03 	vldr	s15, [r2, #12]
    1ed2:	b909      	cbnz	r1, 1ed8 <GetSpeedRangeAtRPM+0x9c>
    1ed4:	ee77 7ac7 	vsub.f32	s15, s15, s14
    1ed8:	eeb4 0ae7 	vcmpe.f32	s0, s15
    1edc:	eef1 fa10 	vmrs	APSR_nzcv, fpscr
    1ee0:	db0c      	blt.n	1efc <GetSpeedRangeAtRPM+0xc0>
    1ee2:	edd2 7a04 	vldr	s15, [r2, #16]
    1ee6:	eef4 7ac0 	vcmpe.f32	s15, s0
    1eea:	eef1 fa10 	vmrs	APSR_nzcv, fpscr
    1eee:	db05      	blt.n	1efc <GetSpeedRangeAtRPM+0xc0>
    1ef0:	2338      	movs	r3, #56	; 0x38
    1ef2:	fb03 4401 	mla	r4, r3, r1, r4
    1ef6:	4635      	mov	r5, r6
    1ef8:	340c      	adds	r4, #12
    1efa:	e7b8      	b.n	1e6e <GetSpeedRangeAtRPM+0x32>
    1efc:	3101      	adds	r1, #1
    1efe:	3238      	adds	r2, #56	; 0x38
    1f00:	e7e3      	b.n	1eca <GetSpeedRangeAtRPM+0x8e>
    1f02:	bf00      	nop
    1f04:	47c34f80 	strbmi	r4, [r3, r0, lsl #31]

Disassembly of section .text.PrintSPWMConfig:

00001f08 <PrintSPWMConfig>:
    1f08:	b570      	push	{r4, r5, r6, lr}
    1f0a:	7803      	ldrb	r3, [r0, #0]
    1f0c:	4604      	mov	r4, r0
    1f0e:	2b04      	cmp	r3, #4
    1f10:	d82e      	bhi.n	1f70 <PrintSPWMConfig+0x68>
    1f12:	e8df f003 	tbb	[pc, r3]
    1f16:	2421032a 	strtcs	r0, [r1], #-810	; 0xfffffcd6
    1f1a:	491b0027 	ldmdbmi	fp, {r0, r1, r2, r5}
    1f1e:	4479      	add	r1, pc
    1f20:	4d19      	ldr	r5, [pc, #100]	; (1f88 <PrintSPWMConfig+0x80>)
    1f22:	481b      	ldr	r0, [pc, #108]	; (1f90 <PrintSPWMConfig+0x88>)
    1f24:	f8d5 30b4 	ldr.w	r3, [r5, #180]	; 0xb4
    1f28:	4478      	add	r0, pc
    1f2a:	4798      	blx	r3
    1f2c:	7823      	ldrb	r3, [r4, #0]
    1f2e:	1e5a      	subs	r2, r3, #1
    1f30:	2a02      	cmp	r2, #2
    1f32:	d820      	bhi.n	1f76 <PrintSPWMConfig+0x6e>
    1f34:	4817      	ldr	r0, [pc, #92]	; (1f94 <PrintSPWMConfig+0x8c>)
    1f36:	f8d5 30b4 	ldr.w	r3, [r5, #180]	; 0xb4
    1f3a:	6861      	ldr	r1, [r4, #4]
    1f3c:	4478      	add	r0, pc
    1f3e:	4798      	blx	r3
    1f40:	7823      	ldrb	r3, [r4, #0]
    1f42:	3b02      	subs	r3, #2
    1f44:	2b01      	cmp	r3, #1
    1f46:	d81e      	bhi.n	1f86 <PrintSPWMConfig+0x7e>
    1f48:	4813      	ldr	r0, [pc, #76]	; (1f98 <PrintSPWMConfig+0x90>)
    1f4a:	f8d5 30b4 	ldr.w	r3, [r5, #180]	; 0xb4
    1f4e:	68a1      	ldr	r1, [r4, #8]
    1f50:	4478      	add	r0, pc
    1f52:	e8bd 4070 	ldmia.w	sp!, {r4, r5, r6, lr}
    1f56:	4718      	bx	r3
    1f58:	4910      	ldr	r1, [pc, #64]	; (1f9c <PrintSPWMConfig+0x94>)
    1f5a:	4479      	add	r1, pc
    1f5c:	e7e0      	b.n	1f20 <PrintSPWMConfig+0x18>
    1f5e:	4910      	ldr	r1, [pc, #64]	; (1fa0 <PrintSPWMConfig+0x98>)
    1f60:	4479      	add	r1, pc
    1f62:	e7dd      	b.n	1f20 <PrintSPWMConfig+0x18>
    1f64:	490f      	ldr	r1, [pc, #60]	; (1fa4 <PrintSPWMConfig+0x9c>)
    1f66:	4479      	add	r1, pc
    1f68:	e7da      	b.n	1f20 <PrintSPWMConfig+0x18>
    1f6a:	490f      	ldr	r1, [pc, #60]	; (1fa8 <PrintSPWMConfig+0xa0>)
    1f6c:	4479      	add	r1, pc
    1f6e:	e7d7      	b.n	1f20 <PrintSPWMConfig+0x18>
    1f70:	490e      	ldr	r1, [pc, #56]	; (1fac <PrintSPWMConfig+0xa4>)
    1f72:	4479      	add	r1, pc
    1f74:	e7d4      	b.n	1f20 <PrintSPWMConfig+0x18>
    1f76:	2b04      	cmp	r3, #4
    1f78:	d105      	bne.n	1f86 <PrintSPWMConfig+0x7e>
    1f7a:	480d      	ldr	r0, [pc, #52]	; (1fb0 <PrintSPWMConfig+0xa8>)
    1f7c:	f8d5 30b4 	ldr.w	r3, [r5, #180]	; 0xb4
    1f80:	68e1      	ldr	r1, [r4, #12]
    1f82:	4478      	add	r0, pc
    1f84:	e7e5      	b.n	1f52 <PrintSPWMConfig+0x4a>
    1f86:	bd70      	pop	{r4, r5, r6, pc}
    1f88:	1000f800 	andne	pc, r0, r0, lsl #16
    1f8c:	ffffec55 			; <UNDEFINED> instruction: 0xffffec55
    1f90:	ffffee7d 			; <UNDEFINED> instruction: 0xffffee7d
    1f94:	ffffee7c 			; <UNDEFINED> instruction: 0xffffee7c
    1f98:	ffffee8c 			; <UNDEFINED> instruction: 0xffffee8c
    1f9c:	ffffebf6 			; <UNDEFINED> instruction: 0xffffebf6
    1fa0:	ffffebfb 			; <UNDEFINED> instruction: 0xffffebfb
    1fa4:	ffffec01 			; <UNDEFINED> instruction: 0xffffec01
    1fa8:	ffffee20 			; <UNDEFINED> instruction: 0xffffee20
    1fac:	ffffebc0 			; <UNDEFINED> instruction: 0xffffebc0
    1fb0:	ffffee7c 			; <UNDEFINED> instruction: 0xffffee7c

Disassembly of section .text.PrintInverterConfig:

00001fb4 <PrintInverterConfig>:
    1fb4:	e92d 47f0 	stmdb	sp!, {r4, r5, r6, r7, r8, r9, sl, lr}
    1fb8:	4c37      	ldr	r4, [pc, #220]	; (2098 <PrintInverterConfig+0xe4>)
    1fba:	4605      	mov	r5, r0
    1fbc:	f8d4 30b4 	ldr.w	r3, [r4, #180]	; 0xb4
    1fc0:	b920      	cbnz	r0, 1fcc <PrintInverterConfig+0x18>
    1fc2:	4836      	ldr	r0, [pc, #216]	; (209c <PrintInverterConfig+0xe8>)
    1fc4:	e8bd 47f0 	ldmia.w	sp!, {r4, r5, r6, r7, r8, r9, sl, lr}
    1fc8:	4478      	add	r0, pc
    1fca:	4718      	bx	r3
    1fcc:	4834      	ldr	r0, [pc, #208]	; (20a0 <PrintInverterConfig+0xec>)
    1fce:	f8df 80d4 	ldr.w	r8, [pc, #212]	; 20a4 <PrintInverterConfig+0xf0>
    1fd2:	f8df 90d4 	ldr.w	r9, [pc, #212]	; 20a8 <PrintInverterConfig+0xf4>
    1fd6:	f8df a0d4 	ldr.w	sl, [pc, #212]	; 20ac <PrintInverterConfig+0xf8>
    1fda:	4478      	add	r0, pc
    1fdc:	4798      	blx	r3
    1fde:	6828      	ldr	r0, [r5, #0]
    1fe0:	f7fe fc3a 	bl	858 <__aeabi_f2d>
    1fe4:	4602      	mov	r2, r0
    1fe6:	4832      	ldr	r0, [pc, #200]	; (20b0 <PrintInverterConfig+0xfc>)
    1fe8:	460b      	mov	r3, r1
    1fea:	4478      	add	r0, pc
    1fec:	f8d4 10b4 	ldr.w	r1, [r4, #180]	; 0xb4
    1ff0:	4788      	blx	r1
    1ff2:	6868      	ldr	r0, [r5, #4]
    1ff4:	f7fe fc30 	bl	858 <__aeabi_f2d>
    1ff8:	4602      	mov	r2, r0
    1ffa:	482e      	ldr	r0, [pc, #184]	; (20b4 <PrintInverterConfig+0x100>)
    1ffc:	460b      	mov	r3, r1
    1ffe:	4478      	add	r0, pc
    2000:	f8d4 10b4 	ldr.w	r1, [r4, #180]	; 0xb4
    2004:	4788      	blx	r1
    2006:	482c      	ldr	r0, [pc, #176]	; (20b8 <PrintInverterConfig+0x104>)
    2008:	f8d4 30b4 	ldr.w	r3, [r4, #180]	; 0xb4
    200c:	f8d5 138c 	ldr.w	r1, [r5, #908]	; 0x38c
    2010:	4478      	add	r0, pc
    2012:	4798      	blx	r3
    2014:	f105 0614 	add.w	r6, r5, #20
    2018:	2700      	movs	r7, #0
    201a:	44f8      	add	r8, pc
    201c:	44f9      	add	r9, pc
    201e:	44fa      	add	sl, pc
    2020:	f8d5 338c 	ldr.w	r3, [r5, #908]	; 0x38c
    2024:	42bb      	cmp	r3, r7
    2026:	dc01      	bgt.n	202c <PrintInverterConfig+0x78>
    2028:	e8bd 87f0 	ldmia.w	sp!, {r4, r5, r6, r7, r8, r9, sl, pc}
    202c:	3701      	adds	r7, #1
    202e:	f8d4 30b4 	ldr.w	r3, [r4, #180]	; 0xb4
    2032:	4639      	mov	r1, r7
    2034:	4640      	mov	r0, r8
    2036:	4798      	blx	r3
    2038:	f856 0c08 	ldr.w	r0, [r6, #-8]
    203c:	f7fe fc0c 	bl	858 <__aeabi_f2d>
    2040:	4602      	mov	r2, r0
    2042:	460b      	mov	r3, r1
    2044:	4648      	mov	r0, r9
    2046:	f8d4 10b4 	ldr.w	r1, [r4, #180]	; 0xb4
    204a:	4788      	blx	r1
    204c:	f856 0c04 	ldr.w	r0, [r6, #-4]
    2050:	f7fe fc02 	bl	858 <__aeabi_f2d>
    2054:	4602      	mov	r2, r0
    2056:	460b      	mov	r3, r1
    2058:	4650      	mov	r0, sl
    205a:	f8d4 10b4 	ldr.w	r1, [r4, #180]	; 0xb4
    205e:	4788      	blx	r1
    2060:	4816      	ldr	r0, [pc, #88]	; (20bc <PrintInverterConfig+0x108>)
    2062:	f8d4 30b4 	ldr.w	r3, [r4, #180]	; 0xb4
    2066:	4478      	add	r0, pc
    2068:	4798      	blx	r3
    206a:	4630      	mov	r0, r6
    206c:	f7ff ff4c 	bl	1f08 <PrintSPWMConfig>
    2070:	4813      	ldr	r0, [pc, #76]	; (20c0 <PrintInverterConfig+0x10c>)
    2072:	f8d4 30b4 	ldr.w	r3, [r4, #180]	; 0xb4
    2076:	4478      	add	r0, pc
    2078:	4798      	blx	r3
    207a:	f106 0010 	add.w	r0, r6, #16
    207e:	f7ff ff43 	bl	1f08 <PrintSPWMConfig>
    2082:	4810      	ldr	r0, [pc, #64]	; (20c4 <PrintInverterConfig+0x110>)
    2084:	f8d4 30b4 	ldr.w	r3, [r4, #180]	; 0xb4
    2088:	4478      	add	r0, pc
    208a:	4798      	blx	r3
    208c:	f106 0020 	add.w	r0, r6, #32
    2090:	f7ff ff3a 	bl	1f08 <PrintSPWMConfig>
    2094:	3638      	adds	r6, #56	; 0x38
    2096:	e7c3      	b.n	2020 <PrintInverterConfig+0x6c>
    2098:	1000f800 	andne	pc, r0, r0, lsl #16
    209c:	ffffee54 			; <UNDEFINED> instruction: 0xffffee54
    20a0:	ffffee62 			; <UNDEFINED> instruction: 0xffffee62
    20a4:	ffffee8b 			; <UNDEFINED> instruction: 0xffffee8b
    20a8:	ffffee9b 			; <UNDEFINED> instruction: 0xffffee9b
    20ac:	ffffee53 			; <UNDEFINED> instruction: 0xffffee53
    20b0:	ffffee6b 			; <UNDEFINED> instruction: 0xffffee6b
    20b4:	ffffee73 			; <UNDEFINED> instruction: 0xffffee73
    20b8:	ffffee77 			; <UNDEFINED> instruction: 0xffffee77
    20bc:	ffffee67 			; <UNDEFINED> instruction: 0xffffee67
    20c0:	ffffee7b 			; <UNDEFINED> instruction: 0xffffee7b
    20c4:	ffffee89 			; <UNDEFINED> instruction: 0xffffee89

Disassembly of section .text.get_enhanced_random:

000020c8 <get_enhanced_random>:
    20c8:	4a0d      	ldr	r2, [pc, #52]	; (2100 <get_enhanced_random+0x38>)
    20ca:	490e      	ldr	r1, [pc, #56]	; (2104 <get_enhanced_random+0x3c>)
    20cc:	447a      	add	r2, pc
    20ce:	4479      	add	r1, pc
    20d0:	8813      	ldrh	r3, [r2, #0]
    20d2:	f831 0013 	ldrh.w	r0, [r1, r3, lsl #1]
    20d6:	490c      	ldr	r1, [pc, #48]	; (2108 <get_enhanced_random+0x40>)
    20d8:	3301      	adds	r3, #1
    20da:	4479      	add	r1, pc
    20dc:	b2db      	uxtb	r3, r3
    20de:	8013      	strh	r3, [r2, #0]
    20e0:	880b      	ldrh	r3, [r1, #0]
    20e2:	08da      	lsrs	r2, r3, #3
    20e4:	ea82 0293 	eor.w	r2, r2, r3, lsr #2
    20e8:	405a      	eors	r2, r3
    20ea:	ea82 1253 	eor.w	r2, r2, r3, lsr #5
    20ee:	f002 0201 	and.w	r2, r2, #1
    20f2:	085b      	lsrs	r3, r3, #1
    20f4:	ea43 33c2 	orr.w	r3, r3, r2, lsl #15
    20f8:	800b      	strh	r3, [r1, #0]
    20fa:	4058      	eors	r0, r3
    20fc:	4770      	bx	lr
    20fe:	bf00      	nop
    2100:	ffffe4b0 			; <UNDEFINED> instruction: 0xffffe4b0
    2104:	ffffee6e 			; <UNDEFINED> instruction: 0xffffee6e
    2108:	ffffe000 			; <UNDEFINED> instruction: 0xffffe000

Disassembly of section .text.random_range:

0000210c <random_range>:
    210c:	b538      	push	{r3, r4, r5, lr}
    210e:	4605      	mov	r5, r0
    2110:	460c      	mov	r4, r1
    2112:	f7ff ffd9 	bl	20c8 <get_enhanced_random>
    2116:	1b61      	subs	r1, r4, r5
    2118:	3101      	adds	r1, #1
    211a:	fb90 f3f1 	sdiv	r3, r0, r1
    211e:	fb03 0011 	mls	r0, r3, r1, r0
    2122:	4428      	add	r0, r5
    2124:	bd38      	pop	{r3, r4, r5, pc}

Disassembly of section .text.SPWMGenerator_Init:

00002128 <SPWMGenerator_Init>:
    2128:	4a05      	ldr	r2, [pc, #20]	; (2140 <SPWMGenerator_Init+0x18>)
    212a:	6082      	str	r2, [r0, #8]
    212c:	4a05      	ldr	r2, [pc, #20]	; (2144 <SPWMGenerator_Init+0x1c>)
    212e:	60c2      	str	r2, [r0, #12]
    2130:	2300      	movs	r3, #0
    2132:	f04f 527e 	mov.w	r2, #1065353216	; 0x3f800000
    2136:	6003      	str	r3, [r0, #0]
    2138:	6043      	str	r3, [r0, #4]
    213a:	6102      	str	r2, [r0, #16]
    213c:	6143      	str	r3, [r0, #20]
    213e:	4770      	bx	lr
    2140:	447a0000 	ldrbtmi	r0, [sl], #-0
    2144:	42c80000 	sbcmi	r0, r8, #0

Disassembly of section .text.SPWMGenerator_GenerateSawtooth:

00002148 <SPWMGenerator_GenerateSawtooth>:
    2148:	ed9f 7a0b 	vldr	s14, [pc, #44]	; 2178 <SPWMGenerator_GenerateSawtooth+0x30>
    214c:	eec0 7a07 	vdiv.f32	s15, s0, s14
    2150:	b082      	sub	sp, #8
    2152:	ed9f 7a0a 	vldr	s14, [pc, #40]	; 217c <SPWMGenerator_GenerateSawtooth+0x34>
    2156:	ee67 7a87 	vmul.f32	s15, s15, s14
    215a:	eef4 7a47 	vcmp.f32	s15, s14
    215e:	eef1 fa10 	vmrs	APSR_nzcv, fpscr
    2162:	bfc8      	it	gt
    2164:	eef0 7a47 	vmovgt.f32	s15, s14
    2168:	eefd 7ae7 	vcvt.s32.f32	s15, s15
    216c:	edcd 7a01 	vstr	s15, [sp, #4]
    2170:	f99d 0004 	ldrsb.w	r0, [sp, #4]
    2174:	b002      	add	sp, #8
    2176:	4770      	bx	lr
    2178:	40c90fdb 	ldrdmi	r0, [r9], #251	; 0xfb
    217c:	42fe0000 	rscsmi	r0, lr, #0

Disassembly of section .text.SPWMGenerator_GenerateSamples:

00002180 <SPWMGenerator_GenerateSamples>:
    2180:	e92d 41f0 	stmdb	sp!, {r4, r5, r6, r7, r8, lr}
    2184:	ed2d 8b02 	vpush	{d8}
    2188:	9e08      	ldr	r6, [sp, #32]
    218a:	4617      	mov	r7, r2
    218c:	4698      	mov	r8, r3
    218e:	4604      	mov	r4, r0
    2190:	b920      	cbnz	r0, 219c <SPWMGenerator_GenerateSamples+0x1c>
    2192:	2000      	movs	r0, #0
    2194:	ecbd 8b02 	vpop	{d8}
    2198:	e8bd 81f0 	ldmia.w	sp!, {r4, r5, r6, r7, r8, pc}
    219c:	2a00      	cmp	r2, #0
    219e:	d0f8      	beq.n	2192 <SPWMGenerator_GenerateSamples+0x12>
    21a0:	2e00      	cmp	r6, #0
    21a2:	d0f6      	beq.n	2192 <SPWMGenerator_GenerateSamples+0x12>
    21a4:	7a33      	ldrb	r3, [r6, #8]
    21a6:	b933      	cbnz	r3, 21b6 <SPWMGenerator_GenerateSamples+0x36>
    21a8:	ea28 72e8 	bic.w	r2, r8, r8, asr #31
    21ac:	4619      	mov	r1, r3
    21ae:	4638      	mov	r0, r7
    21b0:	f7fe fbae 	bl	910 <memset>
    21b4:	e7ed      	b.n	2192 <SPWMGenerator_GenerateSamples+0x12>
    21b6:	2901      	cmp	r1, #1
    21b8:	d016      	beq.n	21e8 <SPWMGenerator_GenerateSamples+0x68>
    21ba:	2902      	cmp	r1, #2
    21bc:	d017      	beq.n	21ee <SPWMGenerator_GenerateSamples+0x6e>
    21be:	b951      	cbnz	r1, 21d6 <SPWMGenerator_GenerateSamples+0x56>
    21c0:	f106 0508 	add.w	r5, r6, #8
    21c4:	782b      	ldrb	r3, [r5, #0]
    21c6:	2b01      	cmp	r3, #1
    21c8:	d114      	bne.n	21f4 <SPWMGenerator_GenerateSamples+0x74>
    21ca:	edd5 7a01 	vldr	s15, [r5, #4]
    21ce:	eef8 7ae7 	vcvt.f32.s32	s15, s15
    21d2:	edc4 7a02 	vstr	s15, [r4, #8]
    21d6:	ed9f 8a3a 	vldr	s16, [pc, #232]	; 22c0 <SPWMGenerator_GenerateSamples+0x140>
    21da:	eddf 8a3a 	vldr	s17, [pc, #232]	; 22c4 <SPWMGenerator_GenerateSamples+0x144>
    21de:	2500      	movs	r5, #0
    21e0:	4545      	cmp	r5, r8
    21e2:	db3b      	blt.n	225c <SPWMGenerator_GenerateSamples+0xdc>
    21e4:	2001      	movs	r0, #1
    21e6:	e7d5      	b.n	2194 <SPWMGenerator_GenerateSamples+0x14>
    21e8:	f106 0518 	add.w	r5, r6, #24
    21ec:	e7ea      	b.n	21c4 <SPWMGenerator_GenerateSamples+0x44>
    21ee:	f106 0528 	add.w	r5, r6, #40	; 0x28
    21f2:	e7e7      	b.n	21c4 <SPWMGenerator_GenerateSamples+0x44>
    21f4:	eddd 7a09 	vldr	s15, [sp, #36]	; 0x24
    21f8:	eeb8 7ae7 	vcvt.f32.s32	s14, s15
    21fc:	2b02      	cmp	r3, #2
    21fe:	eec0 6a07 	vdiv.f32	s13, s0, s14
    2202:	d119      	bne.n	2238 <SPWMGenerator_GenerateSamples+0xb8>
    2204:	e9d5 1001 	ldrd	r1, r0, [r5, #4]
    2208:	1a40      	subs	r0, r0, r1
    220a:	ed96 6a00 	vldr	s12, [r6]
    220e:	ee07 0a90 	vmov	s15, r0
    2212:	eef0 5a46 	vmov.f32	s11, s12
    2216:	eeb8 7ae7 	vcvt.f32.s32	s14, s15
    221a:	eed6 5aa0 	vfnms.f32	s11, s13, s1
    221e:	edd6 7a01 	vldr	s15, [r6, #4]
    2222:	ee77 7ac6 	vsub.f32	s15, s15, s12
    2226:	eec5 6aa7 	vdiv.f32	s13, s11, s15
    222a:	ee07 1a90 	vmov	s15, r1
    222e:	eef8 7ae7 	vcvt.f32.s32	s15, s15
    2232:	eee7 7a26 	vfma.f32	s15, s14, s13
    2236:	e7cc      	b.n	21d2 <SPWMGenerator_GenerateSamples+0x52>
    2238:	2b04      	cmp	r3, #4
    223a:	d106      	bne.n	224a <SPWMGenerator_GenerateSamples+0xca>
    223c:	edd5 7a03 	vldr	s15, [r5, #12]
    2240:	eef8 7ae7 	vcvt.f32.s32	s15, s15
    2244:	ee67 7aa6 	vmul.f32	s15, s15, s13
    2248:	e7c3      	b.n	21d2 <SPWMGenerator_GenerateSamples+0x52>
    224a:	2b03      	cmp	r3, #3
    224c:	d1c3      	bne.n	21d6 <SPWMGenerator_GenerateSamples+0x56>
    224e:	e9d5 0101 	ldrd	r0, r1, [r5, #4]
    2252:	f7ff ff5b 	bl	210c <random_range>
    2256:	ee07 0a90 	vmov	s15, r0
    225a:	e7b8      	b.n	21ce <SPWMGenerator_GenerateSamples+0x4e>
    225c:	edd4 7a03 	vldr	s15, [r4, #12]
    2260:	edd4 6a02 	vldr	s13, [r4, #8]
    2264:	ee67 7a88 	vmul.f32	s15, s15, s16
    2268:	ee66 6a88 	vmul.f32	s13, s13, s16
    226c:	ee87 7aa8 	vdiv.f32	s14, s15, s17
    2270:	edd4 7a01 	vldr	s15, [r4, #4]
    2274:	ee37 7a27 	vadd.f32	s14, s14, s15
    2278:	eec6 7aa8 	vdiv.f32	s15, s13, s17
    227c:	edd4 6a00 	vldr	s13, [r4]
    2280:	ed84 7a01 	vstr	s14, [r4, #4]
    2284:	eeb4 7ac8 	vcmpe.f32	s14, s16
    2288:	ee77 7aa6 	vadd.f32	s15, s15, s13
    228c:	eef1 fa10 	vmrs	APSR_nzcv, fpscr
    2290:	bfa8      	it	ge
    2292:	ee37 7a48 	vsubge.f32	s14, s14, s16
    2296:	eef4 7ac8 	vcmpe.f32	s15, s16
    229a:	bfa8      	it	ge
    229c:	ed84 7a01 	vstrge	s14, [r4, #4]
    22a0:	eef1 fa10 	vmrs	APSR_nzcv, fpscr
    22a4:	edc4 7a00 	vstr	s15, [r4]
    22a8:	bfa4      	itt	ge
    22aa:	ee77 7ac8 	vsubge.f32	s15, s15, s16
    22ae:	edc4 7a00 	vstrge	s15, [r4]
    22b2:	ed94 0a00 	vldr	s0, [r4]
    22b6:	f7ff ff47 	bl	2148 <SPWMGenerator_GenerateSawtooth>
    22ba:	5578      	strb	r0, [r7, r5]
    22bc:	3501      	adds	r5, #1
    22be:	e78f      	b.n	21e0 <SPWMGenerator_GenerateSamples+0x60>
    22c0:	40c90fdb 	ldrdmi	r0, [r9], #251	; 0xfb
    22c4:	46c35000 	strbmi	r5, [r3], r0

Disassembly of section .comment:

00000000 <.comment>:
   0:	3a434347 	bcc	10d0d24 <SPWMGenerator_GenerateSamples+0x10ceba4>
   4:	35312820 	ldrcc	r2, [r1, #-2080]!	; 0xfffff7e0
   8:	2e30313a 	mrccs	1, 1, r3, cr0, cr10, {1}
   c:	30322d33 	eorscc	r2, r2, r3, lsr sp
  10:	302e3132 	eorcc	r3, lr, r2, lsr r1
  14:	29342d37 	ldmdbcs	r4!, {r0, r1, r2, r4, r5, r8, sl, fp, sp}
  18:	2e303120 	rsfcssp	f3, f0, f0
  1c:	20312e33 	eorscs	r2, r1, r3, lsr lr
  20:	31323032 	teqcc	r2, r2, lsr r0
  24:	31323630 	teqcc	r2, r0, lsr r6
  28:	65722820 	ldrbvs	r2, [r2, #-2080]!	; 0xfffff7e0
  2c:	7361656c 	cmnvc	r1, #108, 10	; 0x1b000000
  30:	Address 0x0000000000000030 is out of bounds.


Disassembly of section .ARM.attributes:

00000000 <.ARM.attributes>:
   0:	00003141 	andeq	r3, r0, r1, asr #2
   4:	61656100 	cmnvs	r5, r0, lsl #2
   8:	01006962 	tsteq	r0, r2, ror #18
   c:	00000027 	andeq	r0, r0, r7, lsr #32
  10:	2d453705 	stclcs	7, cr3, [r5, #-20]	; 0xffffffec
  14:	0d06004d 	stceq	0, cr0, [r6, #-308]	; 0xfffffecc
  18:	02094d07 	andeq	r4, r9, #448	; 0x1c0
  1c:	0412060a 	ldreq	r0, [r2], #-1546	; 0xfffff9f6
  20:	01150114 	tsteq	r5, r4, lsl r1
  24:	01180317 	tsteq	r8, r7, lsl r3
  28:	011b011a 	tsteq	fp, sl, lsl r1
  2c:	041e011c 	ldreq	r0, [lr], #-284	; 0xfffffee4
  30:	Address 0x0000000000000030 is out of bounds.


Disassembly of section .debug_line:

00000000 <.debug_line>:
   0:	00000182 	andeq	r0, r0, r2, lsl #3
   4:	00470003 	subeq	r0, r7, r3
   8:	01020000 	mrseq	r0, (UNDEF: 2)
   c:	000d0efb 	strdeq	r0, [sp], -fp
  10:	01010101 	tsteq	r1, r1, lsl #2
  14:	01000000 	mrseq	r0, (UNDEF: 0)
  18:	2e010000 	cdpcs	0, 0, cr0, cr1, cr0, {0}
  1c:	2e2e2f2e 	cdpcs	15, 2, cr2, cr14, cr14, {1}
  20:	2f2e2e2f 	svccs	0x002e2e2f
  24:	2e2f2e2e 	cdpcs	14, 2, cr2, cr15, cr14, {1}
  28:	2e2e2f2e 	cdpcs	15, 2, cr2, cr14, cr14, {1}
  2c:	62696c2f 	rsbvs	r6, r9, #12032	; 0x2f00
  30:	2f636367 	svccs	0x00636367
  34:	666e6f63 	strbtvs	r6, [lr], -r3, ror #30
  38:	612f6769 			; <UNDEFINED> instruction: 0x612f6769
  3c:	00006d72 	andeq	r6, r0, r2, ror sp
  40:	65656569 	strbvs	r6, [r5, #-1385]!	; 0xfffffa97
  44:	2d343537 	cfldr32cs	mvfx3, [r4, #-220]!	; 0xffffff24
  48:	532e6664 			; <UNDEFINED> instruction: 0x532e6664
  4c:	00000100 	andeq	r0, r0, r0, lsl #2
  50:	02050000 	andeq	r0, r5, #0
  54:	00000590 	muleq	r0, r0, r5
  58:	0100cc03 	tsteq	r0, r3, lsl #24
  5c:	2736332f 	ldrcs	r3, [r6, -pc, lsr #6]!
  60:	212f2f2f 			; <UNDEFINED> instruction: 0x212f2f2f
  64:	2f2f212f 	svccs	0x002f212f
  68:	2f322f2f 	svccs	0x00322f2f
  6c:	2121212f 			; <UNDEFINED> instruction: 0x2121212f
  70:	2f2f2f21 	svccs	0x002f2f21
  74:	21332f2f 	teqcs	r3, pc, lsr #30
  78:	2f2f2321 	svccs	0x002f2321
  7c:	21222f2f 			; <UNDEFINED> instruction: 0x21222f2f
  80:	2f2f2f34 	svccs	0x002f2f34
  84:	2f362122 	svccs	0x00362122
  88:	312e0903 			; <UNDEFINED> instruction: 0x312e0903
  8c:	3d2f212f 	stfccs	f2, [pc, #-188]!	; ffffffd8 <SPWMGenerator_GenerateSamples+0xffffde58>
  90:	213d3d2f 	teqcs	sp, pc, lsr #26
  94:	2f212f2f 	svccs	0x00212f2f
  98:	323d2f21 	eorscc	r2, sp, #33, 30	; 0x84
  9c:	2f2f222f 	svccs	0x002f222f
  a0:	2e09032f 	cdpcs	3, 0, cr0, cr9, cr15, {1}
  a4:	232f212f 			; <UNDEFINED> instruction: 0x232f212f
  a8:	312f2f21 			; <UNDEFINED> instruction: 0x312f2f21
  ac:	2f352f2f 	svccs	0x00352f2f
  b0:	2f2f2f21 	svccs	0x002f2f21
  b4:	212f242f 			; <UNDEFINED> instruction: 0x212f242f
  b8:	2f21212f 	svccs	0x0021212f
  bc:	2f201d03 	svccs	0x00201d03
  c0:	2f212121 	svccs	0x00212121
  c4:	2f332121 	svccs	0x00332121
  c8:	2f242121 	svccs	0x00242121
  cc:	242f2f2f 	strtcs	r2, [pc], #-3887	; d4 <init+0xd0>
  d0:	302f212f 	eorcc	r2, pc, pc, lsr #2
  d4:	272f212f 	strcs	r2, [pc, -pc, lsr #2]!
  d8:	212f2121 			; <UNDEFINED> instruction: 0x212f2121
  dc:	21212f24 			; <UNDEFINED> instruction: 0x21212f24
  e0:	2f2f2321 	svccs	0x002f2321
  e4:	244b4b2f 	strbcs	r4, [fp], #-2863	; 0xfffff4d1
  e8:	4b2f2f2f 	blmi	bcbdac <SPWMGenerator_GenerateSamples+0xbc9c2c>
  ec:	212f2421 			; <UNDEFINED> instruction: 0x212f2421
  f0:	212f2f25 			; <UNDEFINED> instruction: 0x212f2f25
  f4:	2421212f 	strtcs	r2, [r1], #-303	; 0xfffffed1
  f8:	222f212f 	eorcs	r2, pc, #-1073741813	; 0xc000000b
  fc:	232f212f 			; <UNDEFINED> instruction: 0x232f212f
 100:	2121212f 			; <UNDEFINED> instruction: 0x2121212f
 104:	21213122 			; <UNDEFINED> instruction: 0x21213122
 108:	212f2321 			; <UNDEFINED> instruction: 0x212f2321
 10c:	2f212121 	svccs	0x00212121
 110:	2f212f21 	svccs	0x00212f21
 114:	2f2f3221 	svccs	0x002f3221
 118:	2009032f 	andcs	r0, r9, pc, lsr #6
 11c:	2121212f 			; <UNDEFINED> instruction: 0x2121212f
 120:	2121212f 			; <UNDEFINED> instruction: 0x2121212f
 124:	2f2f212f 	svccs	0x002f212f
 128:	2e0c032f 	cdpcs	3, 0, cr0, cr12, cr15, {1}
 12c:	2221212f 	eorcs	r2, r1, #-1073741813	; 0xc000000b
 130:	322f2f26 	eorcc	r2, pc, #38, 30	; 0x98
 134:	2e0a032f 	cdpcs	3, 0, cr0, cr10, cr15, {1}
 138:	2221212f 	eorcs	r2, r1, #-1073741813	; 0xc000000b
 13c:	2f2f2f26 	svccs	0x002f2f26
 140:	032f2421 			; <UNDEFINED> instruction: 0x032f2421
 144:	2f212e0a 	svccs	0x00212e0a
 148:	2f212f2f 	svccs	0x00212f2f
 14c:	2f222f2f 	svccs	0x00222f2f
 150:	212f2221 			; <UNDEFINED> instruction: 0x212f2221
 154:	2f26232f 	svccs	0x0026232f
 158:	0b032f2f 	bleq	cbe1c <SPWMGenerator_GenerateSamples+0xc9c9c>
 15c:	22212f2e 	eorcs	r2, r1, #46, 30	; 0xb8
 160:	09032f26 	stmdbeq	r3, {r1, r2, r5, r8, r9, sl, fp, sp}
 164:	22212f20 	eorcs	r2, r1, #32, 30	; 0x80
 168:	21222f26 			; <UNDEFINED> instruction: 0x21222f26
 16c:	09032f34 	stmdbeq	r3, {r2, r4, r5, r8, r9, sl, fp, sp}
 170:	2f312f2e 	svccs	0x00312f2e
 174:	2f21212f 	svccs	0x0021212f
 178:	2f302121 	svccs	0x00302121
 17c:	2f4b2f2f 	svccs	0x004b2f2f
 180:	00010221 	andeq	r0, r1, r1, lsr #4
 184:	01bb0101 			; <UNDEFINED> instruction: 0x01bb0101
 188:	00030000 	andeq	r0, r3, r0
 18c:	000000c2 	andeq	r0, r0, r2, asr #1
 190:	0efb0102 	cdpeq	1, 15, cr0, cr11, cr2, {0}
 194:	0101000d 	tsteq	r1, sp
 198:	00000101 	andeq	r0, r0, r1, lsl #2
 19c:	00000100 	andeq	r0, r0, r0, lsl #2
 1a0:	2f2e2e01 	svccs	0x002e2e01
 1a4:	2e2f2e2e 	cdpcs	14, 2, cr2, cr15, cr14, {1}
 1a8:	2e2e2f2e 	cdpcs	15, 2, cr2, cr14, cr14, {1}
 1ac:	2f2e2e2f 	svccs	0x002e2e2f
 1b0:	2e2f2e2e 	cdpcs	14, 2, cr2, cr15, cr14, {1}
 1b4:	2e2e2f2e 	cdpcs	15, 2, cr2, cr14, cr14, {1}
 1b8:	77656e2f 	strbvc	r6, [r5, -pc, lsr #28]!
 1bc:	2f62696c 	svccs	0x0062696c
 1c0:	6362696c 	cmnvs	r2, #108, 18	; 0x1b0000
 1c4:	7274732f 	rsbsvc	r7, r4, #-1140850688	; 0xbc000000
 1c8:	00676e69 	rsbeq	r6, r7, r9, ror #28
 1cc:	7273752f 	rsbsvc	r7, r3, #197132288	; 0xbc00000
 1d0:	62696c2f 	rsbvs	r6, r9, #12032	; 0x2f00
 1d4:	6363672f 	cmnvs	r3, #12320768	; 0xbc0000
 1d8:	6d72612f 	ldfvse	f6, [r2, #-188]!	; 0xffffff44
 1dc:	6e6f6e2d 	cdpvs	14, 6, cr6, cr15, cr13, {1}
 1e0:	61652d65 	cmnvs	r5, r5, ror #26
 1e4:	312f6962 			; <UNDEFINED> instruction: 0x312f6962
 1e8:	2e332e30 	mrccs	14, 1, r2, cr3, cr0, {1}
 1ec:	6e692f31 	mcrvs	15, 3, r2, cr9, cr1, {1}
 1f0:	64756c63 	ldrbtvs	r6, [r5], #-3171	; 0xfffff39d
 1f4:	622f0065 	eorvs	r0, pc, #101	; 0x65
 1f8:	646c6975 	strbtvs	r6, [ip], #-2421	; 0xfffff68b
 1fc:	77656e2f 	strbvc	r6, [r5, -pc, lsr #28]!
 200:	2d62696c 			; <UNDEFINED> instruction: 0x2d62696c
 204:	30334270 	eorscc	r4, r3, r0, ror r2
 208:	6e2f6564 	cfsh64vs	mvdx6, mvdx15, #52
 20c:	696c7765 	stmdbvs	ip!, {r0, r2, r5, r6, r8, r9, sl, ip, sp, lr}^
 210:	2e332d62 	cdpcs	13, 3, cr2, cr3, cr2, {3}
 214:	2f302e33 	svccs	0x00302e33
 218:	6c77656e 	cfldr64vs	mvdx6, [r7], #-440	; 0xfffffe48
 21c:	6c2f6269 	sfmvs	f6, 4, [pc], #-420	; 80 <init+0x7c>
 220:	2f636269 	svccs	0x00636269
 224:	6c636e69 	stclvs	14, cr6, [r3], #-420	; 0xfffffe5c
 228:	00656475 	rsbeq	r6, r5, r5, ror r4
 22c:	6d656d00 	stclvs	13, cr6, [r5, #-0]
 230:	2e746573 	mrccs	5, 3, r6, cr4, cr3, {3}
 234:	00010063 	andeq	r0, r1, r3, rrx
 238:	64747300 	ldrbtvs	r7, [r4], #-768	; 0xfffffd00
 23c:	2e666564 	cdpcs	5, 6, cr6, cr6, cr4, {3}
 240:	00020068 	andeq	r0, r2, r8, rrx
 244:	72747300 	rsbsvc	r7, r4, #0, 6
 248:	2e676e69 	cdpcs	14, 6, cr6, cr7, cr9, {3}
 24c:	00030068 	andeq	r0, r3, r8, rrx
 250:	01050000 	mrseq	r0, (UNDEF: 5)
 254:	10020500 	andne	r0, r2, r0, lsl #10
 258:	03000009 	movweq	r0, #9
 25c:	03050128 	movweq	r0, #20776	; 0x5128
 260:	13131513 	tstne	r3, #79691776	; 0x4c00000
 264:	09051513 	stmdbeq	r5, {r0, r1, r4, r8, sl, ip}
 268:	06010501 	streq	r0, [r1], -r1, lsl #10
 26c:	05207603 	streq	r7, [r0, #-1539]!	; 0xfffff9fd
 270:	200a0309 	andcs	r0, sl, r9, lsl #6
 274:	22060705 	andcs	r0, r6, #1310720	; 0x140000
 278:	01060c05 	tsteq	r6, r5, lsl #24
 27c:	05200a05 	streq	r0, [r0, #-2565]!	; 0xfffff5fb
 280:	09052f10 	stmdbeq	r5, {r4, r8, r9, sl, fp, sp}
 284:	05207403 	streq	r7, [r0, #-1027]!	; 0xfffffbfd
 288:	2e0b030a 	cdpcs	3, 0, cr0, cr11, cr10, {0}
 28c:	06070520 	streq	r0, [r7], -r0, lsr #10
 290:	13090520 	movwne	r0, #38176	; 0x9520
 294:	01060e05 	tsteq	r6, r5, lsl #28
 298:	2b060905 	blcs	1826b4 <SPWMGenerator_GenerateSamples+0x180534>
 29c:	05360305 	ldreq	r0, [r6, #-773]!	; 0xfffffcfb
 2a0:	05010606 	streq	r0, [r1, #-1542]	; 0xfffff9fa
 2a4:	2e750310 	mrccs	3, 3, r0, cr5, cr0, {0}
 2a8:	03060705 	movweq	r0, #26373	; 0x6705
 2ac:	0516200e 	ldreq	r2, [r6, #-14]
 2b0:	0501060e 	streq	r0, [r1, #-1550]	; 0xfffff9f2
 2b4:	052f0607 	streq	r0, [pc, #-1543]!	; fffffcb5 <SPWMGenerator_GenerateSamples+0xffffdb35>
 2b8:	0517060d 	ldreq	r0, [r7, #-1549]	; 0xfffff9f3
 2bc:	07051b0e 	streq	r1, [r5, -lr, lsl #22]
 2c0:	14052f06 	strne	r2, [r5], #-3846	; 0xfffff0fa
 2c4:	160d0501 	strne	r0, [sp], -r1, lsl #10
 2c8:	0b052006 	bleq	1482e8 <SPWMGenerator_GenerateSamples+0x146168>
 2cc:	1b05ae06 	blne	16baec <SPWMGenerator_GenerateSamples+0x16996c>
 2d0:	0b051306 	bleq	144ef0 <SPWMGenerator_GenerateSamples+0x142d70>
 2d4:	1b052f06 	blne	14bef4 <SPWMGenerator_GenerateSamples+0x149d74>
 2d8:	0b051306 	bleq	144ef8 <SPWMGenerator_GenerateSamples+0x142d78>
 2dc:	0d052f06 	stceq	15, cr2, [r5, #-24]	; 0xffffffe8
 2e0:	05017a03 	streq	r7, [r1, #-2563]	; 0xfffff5fd
 2e4:	05410618 	strbeq	r0, [r1, #-1560]	; 0xfffff9e8
 2e8:	1805320d 	stmdane	r5, {r0, r2, r3, r9, ip, sp}
 2ec:	2f0d052a 	svccs	0x000d052a
 2f0:	20063106 	andcs	r3, r6, r6, lsl #2
 2f4:	060b052e 	streq	r0, [fp], -lr, lsr #10
 2f8:	061b054c 	ldreq	r0, [fp], -ip, asr #10
 2fc:	060b0501 	streq	r0, [fp], -r1, lsl #10
 300:	0f0d052f 	svceq	0x000d052f
 304:	09053106 	stmdbeq	r5, {r1, r2, r8, ip, sp}
 308:	01063606 	tsteq	r6, r6, lsl #12
 30c:	5a031005 	bpl	c4328 <SPWMGenerator_GenerateSamples+0xc21a8>
 310:	06050520 	streq	r0, [r5], -r0, lsr #10
 314:	052e2703 	streq	r2, [lr, #-1795]!	; 0xfffff8fd
 318:	0501060a 	streq	r0, [r1, #-1546]	; 0xfffff9f6
 31c:	062d0609 	strteq	r0, [sp], -r9, lsl #12
 320:	32010501 	andcc	r0, r1, #4194304	; 0x400000
 324:	71030d05 	tstvc	r3, r5, lsl #26
 328:	1c180520 	cfldr32ne	mvfx0, [r8], {32}
 32c:	03060905 	movweq	r0, #26885	; 0x6905
 330:	0106200f 	tsteq	r6, pc
 334:	204e032e 	subcs	r0, lr, lr, lsr #6
 338:	05200903 	streq	r0, [r0, #-2307]!	; 0xfffff6fd
 33c:	2e15030d 	cdpcs	3, 1, cr0, cr5, cr13, {0}
 340:	01000302 	tsteq	r0, r2, lsl #6
 344:	Address 0x0000000000000344 is out of bounds.


Disassembly of section .debug_info:

00000000 <.debug_info>:
   0:	00000022 	andeq	r0, r0, r2, lsr #32
   4:	00000002 	andeq	r0, r0, r2
   8:	01040000 	mrseq	r0, (UNDEF: 4)
   c:	00000000 	andeq	r0, r0, r0
  10:	00000590 	muleq	r0, r0, r5
  14:	00000906 	andeq	r0, r0, r6, lsl #18
  18:	00000000 	andeq	r0, r0, r0
  1c:	00000031 	andeq	r0, r0, r1, lsr r0
  20:	0000009f 	muleq	r0, pc, r0	; <UNPREDICTABLE>
  24:	01338001 	teqeq	r3, r1
  28:	00040000 	andeq	r0, r4, r0
  2c:	00000014 	andeq	r0, r0, r4, lsl r0
  30:	00f20104 	rscseq	r0, r2, r4, lsl #2
  34:	650c0000 	strvs	r0, [ip, #-0]
  38:	ac000001 	stcge	0, cr0, [r0], {1}
  3c:	10000001 	andne	r0, r0, r1
  40:	a4000009 	strge	r0, [r0], #-9
  44:	86000000 	strhi	r0, [r0], -r0
  48:	02000001 	andeq	r0, r0, #1
  4c:	6e690504 	cdpvs	5, 6, cr0, cr9, cr4, {0}
  50:	b9030074 	stmdblt	r3, {r2, r4, r5, r6}
  54:	02000000 	andeq	r0, r0, #0
  58:	003817d1 	ldrsbteq	r1, [r8], -r1
  5c:	04040000 	streq	r0, [r4], #-0
  60:	0000ca07 	andeq	ip, r0, r7, lsl #20
  64:	05080400 	streq	r0, [r8, #-1024]	; 0xfffffc00
  68:	000000ab 	andeq	r0, r0, fp, lsr #1
  6c:	09040804 	stmdbeq	r4, {r2, fp}
  70:	04000002 	streq	r0, [r0], #-2
  74:	00e60601 	rsceq	r0, r6, r1, lsl #12
  78:	01040000 	mrseq	r0, (UNDEF: 4)
  7c:	0000e408 	andeq	lr, r0, r8, lsl #8
  80:	05020400 	streq	r0, [r2, #-1024]	; 0xfffffc00
  84:	0000021c 	andeq	r0, r0, ip, lsl r2
  88:	99070204 	stmdbls	r7, {r2, r9}
  8c:	04000001 	streq	r0, [r0], #-1
  90:	00b00504 	adcseq	r0, r0, r4, lsl #10
  94:	04040000 	streq	r0, [r4], #-0
  98:	0000c507 	andeq	ip, r0, r7, lsl #10
  9c:	07080400 	streq	r0, [r8, -r0, lsl #8]
  a0:	000000c0 	andeq	r0, r0, r0, asr #1
  a4:	04060405 	streq	r0, [r6], #-1029	; 0xfffffbfb
  a8:	00000086 	andeq	r0, r0, r6, lsl #1
  ac:	ed080104 	stfs	f0, [r8, #-16]
  b0:	07000000 	streq	r0, [r0, -r0]
  b4:	00000215 	andeq	r0, r0, r5, lsl r2
  b8:	7e092103 	adfvce	f2, f1, f3
  bc:	10000000 	andne	r0, r0, r0
  c0:	a4000009 	strge	r0, [r0], #-9
  c4:	01000000 	mrseq	r0, (UNDEF: 0)
  c8:	0001309c 	muleq	r1, ip, r0
  cc:	006d0800 	rsbeq	r0, sp, r0, lsl #16
  d0:	7e0f2601 	cfmadd32vc	mvax0, mvfx2, mvfx15, mvfx1
  d4:	01000000 	mrseq	r0, (UNDEF: 0)
  d8:	00630850 	rsbeq	r0, r3, r0, asr r8
  dc:	25062701 	strcs	r2, [r6, #-1793]	; 0xfffff8ff
  e0:	01000000 	mrseq	r0, (UNDEF: 0)
  e4:	006e0951 	rsbeq	r0, lr, r1, asr r9
  e8:	2c092801 	stccs	8, cr2, [r9], {1}
  ec:	14000000 	strne	r0, [r0], #-0
  f0:	00000000 	andeq	r0, r0, r0
  f4:	0a000000 	beq	fc <ActiveSpeedRange+0x1c>
  f8:	2a010073 	bcs	402cc <SPWMGenerator_GenerateSamples+0x3e14c>
  fc:	00008009 	andeq	r8, r0, r9
 100:	0000a600 	andeq	sl, r0, r0, lsl #12
 104:	00009000 	andeq	r9, r0, r0
 108:	00690a00 	rsbeq	r0, r9, r0, lsl #20
 10c:	38102d01 	ldmdacc	r0, {r0, r8, sl, fp, sp}
 110:	31000000 	mrscc	r0, (UNDEF: 0)
 114:	2b000001 	blcs	120 <Conf+0x8>
 118:	0b000001 	bleq	124 <Conf+0xc>
 11c:	00000226 	andeq	r0, r0, r6, lsr #4
 120:	70112e01 	andsvc	r2, r1, r1, lsl #28
 124:	66000000 	strvs	r0, [r0], -r0
 128:	60000001 	andvs	r0, r0, r1
 12c:	0b000001 	bleq	138 <Conf+0x20>
 130:	000000d7 	ldrdeq	r0, [r0], -r7
 134:	30122f01 	andscc	r2, r2, r1, lsl #30
 138:	a1000001 	tstge	r0, r1
 13c:	8f000001 	svchi	0x00000001
 140:	0a000001 	beq	14c <Conf+0x34>
 144:	30010064 	andcc	r0, r1, r4, rrx
 148:	00003810 	andeq	r3, r0, r0, lsl r8
 14c:	00021400 	andeq	r1, r2, r0, lsl #8
 150:	00021200 	andeq	r1, r2, r0, lsl #4
 154:	04060000 	streq	r0, [r6], #-0
 158:	00000070 	andeq	r0, r0, r0, ror r0
	...

Disassembly of section .debug_abbrev:

00000000 <.debug_abbrev>:
   0:	10001101 	andne	r1, r0, r1, lsl #2
   4:	12011106 	andne	r1, r1, #-2147483647	; 0x80000001
   8:	1b0e0301 	blne	380c14 <SPWMGenerator_GenerateSamples+0x37ea94>
   c:	130e250e 	movwne	r2, #58638	; 0xe50e
  10:	00000005 	andeq	r0, r0, r5
  14:	25011101 	strcs	r1, [r1, #-257]	; 0xfffffeff
  18:	030b130e 	movweq	r1, #45838	; 0xb30e
  1c:	110e1b0e 	tstne	lr, lr, lsl #22
  20:	10061201 	andne	r1, r6, r1, lsl #4
  24:	02000017 	andeq	r0, r0, #23
  28:	0b0b0024 	bleq	2c00c0 <SPWMGenerator_GenerateSamples+0x2bdf40>
  2c:	08030b3e 	stmdaeq	r3, {r1, r2, r3, r4, r5, r8, r9, fp}
  30:	16030000 	strne	r0, [r3], -r0
  34:	3a0e0300 	bcc	380c3c <SPWMGenerator_GenerateSamples+0x37eabc>
  38:	390b3b0b 	stmdbcc	fp, {r0, r1, r3, r8, r9, fp, ip, sp}
  3c:	0013490b 	andseq	r4, r3, fp, lsl #18
  40:	00240400 	eoreq	r0, r4, r0, lsl #8
  44:	0b3e0b0b 	bleq	f82c78 <SPWMGenerator_GenerateSamples+0xf80af8>
  48:	00000e03 	andeq	r0, r0, r3, lsl #28
  4c:	0b000f05 	bleq	3c68 <SPWMGenerator_GenerateSamples+0x1ae8>
  50:	0600000b 	streq	r0, [r0], -fp
  54:	0b0b000f 	bleq	2c0098 <SPWMGenerator_GenerateSamples+0x2bdf18>
  58:	00001349 	andeq	r1, r0, r9, asr #6
  5c:	3f012e07 	svccc	0x00012e07
  60:	3a0e0319 	bcc	380ccc <SPWMGenerator_GenerateSamples+0x37eb4c>
  64:	390b3b0b 	stmdbcc	fp, {r0, r1, r3, r8, r9, fp, ip, sp}
  68:	4919270b 	ldmdbmi	r9, {r0, r1, r3, r8, r9, sl, sp}
  6c:	12011113 	andne	r1, r1, #-1073741820	; 0xc0000004
  70:	97184006 	ldrls	r4, [r8, -r6]
  74:	13011942 	movwne	r1, #6466	; 0x1942
  78:	05080000 	streq	r0, [r8, #-0]
  7c:	3a080300 	bcc	200c84 <SPWMGenerator_GenerateSamples+0x1feb04>
  80:	390b3b0b 	stmdbcc	fp, {r0, r1, r3, r8, r9, fp, ip, sp}
  84:	0213490b 	andseq	r4, r3, #180224	; 0x2c000
  88:	09000018 	stmdbeq	r0, {r3, r4}
  8c:	08030005 	stmdaeq	r3, {r0, r2}
  90:	0b3b0b3a 	bleq	ec2d80 <SPWMGenerator_GenerateSamples+0xec0c00>
  94:	13490b39 	movtne	r0, #39737	; 0x9b39
  98:	42b71702 	adcsmi	r1, r7, #524288	; 0x80000
  9c:	0a000017 	beq	100 <ActiveSpeedRange+0x20>
  a0:	08030034 	stmdaeq	r3, {r2, r4, r5}
  a4:	0b3b0b3a 	bleq	ec2d94 <SPWMGenerator_GenerateSamples+0xec0c14>
  a8:	13490b39 	movtne	r0, #39737	; 0x9b39
  ac:	42b71702 	adcsmi	r1, r7, #524288	; 0x80000
  b0:	0b000017 	bleq	114 <ActiveSpeedRange+0x34>
  b4:	0e030034 	mcreq	0, 0, r0, cr3, cr4, {1}
  b8:	0b3b0b3a 	bleq	ec2da8 <SPWMGenerator_GenerateSamples+0xec0c28>
  bc:	13490b39 	movtne	r0, #39737	; 0x9b39
  c0:	42b71702 	adcsmi	r1, r7, #524288	; 0x80000
  c4:	00000017 	andeq	r0, r0, r7, lsl r0

Disassembly of section .debug_aranges:

00000000 <.debug_aranges>:
   0:	0000001c 	andeq	r0, r0, ip, lsl r0
   4:	00000002 	andeq	r0, r0, r2
   8:	00040000 	andeq	r0, r4, r0
   c:	00000000 	andeq	r0, r0, r0
  10:	00000590 	muleq	r0, r0, r5
  14:	00000376 	andeq	r0, r0, r6, ror r3
	...
  20:	0000001c 	andeq	r0, r0, ip, lsl r0
  24:	00260002 	eoreq	r0, r6, r2
  28:	00040000 	andeq	r0, r4, r0
  2c:	00000000 	andeq	r0, r0, r0
  30:	00000910 	andeq	r0, r0, r0, lsl r9
  34:	000000a4 	andeq	r0, r0, r4, lsr #1
	...

Disassembly of section .debug_str:

00000000 <.debug_str>:
   0:	2e2f2e2e 	cdpcs	14, 2, cr2, cr15, cr14, {1}
   4:	2e2e2f2e 	cdpcs	15, 2, cr2, cr14, cr14, {1}
   8:	2f2e2e2f 	svccs	0x002e2e2f
   c:	2e2f2e2e 	cdpcs	14, 2, cr2, cr15, cr14, {1}
  10:	696c2f2e 	stmdbvs	ip!, {r1, r2, r3, r5, r8, r9, sl, fp, sp}^
  14:	63636762 	cmnvs	r3, #25690112	; 0x1880000
  18:	6e6f632f 	cdpvs	3, 6, cr6, cr15, cr15, {1}
  1c:	2f676966 	svccs	0x00676966
  20:	2f6d7261 	svccs	0x006d7261
  24:	65656569 	strbvs	r6, [r5, #-1385]!	; 0xfffffa97
  28:	2d343537 	cfldr32cs	mvfx3, [r4, #-220]!	; 0xffffff24
  2c:	532e6664 			; <UNDEFINED> instruction: 0x532e6664
  30:	75622f00 	strbvc	r2, [r2, #-3840]!	; 0xfffff100
  34:	2f646c69 	svccs	0x00646c69
  38:	2d636367 	stclcs	3, cr6, [r3, #-412]!	; 0xfffffe64
  3c:	2d6d7261 	sfmcs	f7, 2, [sp, #-388]!	; 0xfffffe7c
  40:	656e6f6e 	strbvs	r6, [lr, #-3950]!	; 0xfffff092
  44:	6261652d 	rsbvs	r6, r1, #188743680	; 0xb400000
  48:	59682d69 	stmdbpl	r8!, {r0, r3, r5, r6, r8, sl, fp, sp}^
  4c:	344b6766 	strbcc	r6, [fp], #-1894	; 0xfffff89a
  50:	6363672f 	cmnvs	r3, #12320768	; 0xbc0000
  54:	6d72612d 	ldfvse	f6, [r2, #-180]!	; 0xffffff4c
  58:	6e6f6e2d 	cdpvs	14, 6, cr6, cr15, cr13, {1}
  5c:	61652d65 	cmnvs	r5, r5, ror #26
  60:	312d6962 			; <UNDEFINED> instruction: 0x312d6962
  64:	2d332e30 	ldccs	14, cr2, [r3, #-192]!	; 0xffffff40
  68:	31323032 	teqcc	r2, r2, lsr r0
  6c:	2f37302e 	svccs	0x0037302e
  70:	6c697562 	cfstr64vs	mvdx7, [r9], #-392	; 0xfffffe78
  74:	72612f64 	rsbvc	r2, r1, #100, 30	; 0x190
  78:	6f6e2d6d 	svcvs	0x006e2d6d
  7c:	652d656e 	strvs	r6, [sp, #-1390]!	; 0xfffffa92
  80:	2f696261 	svccs	0x00696261
  84:	6d756874 	ldclvs	8, cr6, [r5, #-464]!	; 0xfffffe30
  88:	37762f62 	ldrbcc	r2, [r6, -r2, ror #30]!
  8c:	2b6d2d65 	blcs	1b4b628 <SPWMGenerator_GenerateSamples+0x1b494a8>
  90:	682f7066 	stmdavs	pc!, {r1, r2, r5, r6, ip, sp, lr}	; <UNPREDICTABLE>
  94:	2f647261 	svccs	0x00647261
  98:	6762696c 	strbvs	r6, [r2, -ip, ror #18]!
  9c:	47006363 	strmi	r6, [r0, -r3, ror #6]
  a0:	4120554e 			; <UNDEFINED> instruction: 0x4120554e
  a4:	2e322053 	mrccs	0, 1, r2, cr2, cr3, {2}
  a8:	6c003733 	stcvs	7, cr3, [r0], {51}	; 0x33
  ac:	20676e6f 	rsbcs	r6, r7, pc, ror #28
  b0:	676e6f6c 	strbvs	r6, [lr, -ip, ror #30]!
  b4:	746e6920 	strbtvc	r6, [lr], #-2336	; 0xfffff6e0
  b8:	7a697300 	bvc	1a5ccc0 <SPWMGenerator_GenerateSamples+0x1a5ab40>
  bc:	00745f65 	rsbseq	r5, r4, r5, ror #30
  c0:	676e6f6c 	strbvs	r6, [lr, -ip, ror #30]!
  c4:	6e6f6c20 	cdpvs	12, 6, cr6, cr15, cr0, {1}
  c8:	6e752067 	cdpvs	0, 7, cr2, cr5, cr7, {3}
  cc:	6e676973 			; <UNDEFINED> instruction: 0x6e676973
  d0:	69206465 	stmdbvs	r0!, {r0, r2, r5, r6, sl, sp, lr}
  d4:	6100746e 	tstvs	r0, lr, ror #8
  d8:	6e67696c 	vnmulvs.f16	s13, s14, s25	; <UNPREDICTABLE>
  dc:	615f6465 	cmpvs	pc, r5, ror #8
  e0:	00726464 	rsbseq	r6, r2, r4, ror #8
  e4:	69736e75 	ldmdbvs	r3!, {r0, r2, r4, r5, r6, r9, sl, fp, sp, lr}^
  e8:	64656e67 	strbtvs	r6, [r5], #-3687	; 0xfffff199
  ec:	61686320 	cmnvs	r8, r0, lsr #6
  f0:	4e470072 	mcrmi	0, 2, r0, cr7, cr2, {3}
  f4:	31432055 	qdaddcc	r2, r5, r3
  f8:	30312037 	eorscc	r2, r1, r7, lsr r0
  fc:	312e332e 			; <UNDEFINED> instruction: 0x312e332e
 100:	32303220 	eorscc	r3, r0, #32, 4
 104:	32363031 	eorscc	r3, r6, #49	; 0x31
 108:	72282031 	eorvc	r2, r8, #49	; 0x31
 10c:	61656c65 	cmnvs	r5, r5, ror #24
 110:	20296573 	eorcs	r6, r9, r3, ror r5
 114:	6c666d2d 	stclvs	13, cr6, [r6], #-180	; 0xffffff4c
 118:	2d74616f 	ldfcse	f6, [r4, #-444]!	; 0xfffffe44
 11c:	3d696261 	sfmcc	f6, 2, [r9, #-388]!	; 0xfffffe7c
 120:	64726168 	ldrbtvs	r6, [r2], #-360	; 0xfffffe98
 124:	746d2d20 	strbtvc	r2, [sp], #-3360	; 0xfffff2e0
 128:	626d7568 	rsbvs	r7, sp, #104, 10	; 0x1a000000
 12c:	666d2d20 	strbtvs	r2, [sp], -r0, lsr #26
 130:	74616f6c 	strbtvc	r6, [r1], #-3948	; 0xfffff094
 134:	6962612d 	stmdbvs	r2!, {r0, r2, r3, r5, r8, sp, lr}^
 138:	7261683d 	rsbvc	r6, r1, #3997696	; 0x3d0000
 13c:	6d2d2064 	stcvs	0, cr2, [sp, #-400]!	; 0xfffffe70
 140:	68637261 	stmdavs	r3!, {r0, r5, r6, r9, ip, sp, lr}^
 144:	6d72613d 	ldfvse	f6, [r2, #-244]!	; 0xffffff0c
 148:	2d653776 	stclcs	7, cr3, [r5, #-472]!	; 0xfffffe28
 14c:	70662b6d 	rsbvc	r2, r6, sp, ror #22
 150:	20672d20 	rsbcs	r2, r7, r0, lsr #26
 154:	20324f2d 	eorscs	r4, r2, sp, lsr #30
 158:	6f6e662d 	svcvs	0x006e662d
 15c:	6975622d 	ldmdbvs	r5!, {r0, r2, r3, r5, r9, sp, lr}^
 160:	6e69746c 	cdpvs	4, 6, cr7, cr9, cr12, {3}
 164:	2f2e2e00 	svccs	0x002e2e00
 168:	2e2f2e2e 	cdpcs	14, 2, cr2, cr15, cr14, {1}
 16c:	2e2e2f2e 	cdpcs	15, 2, cr2, cr14, cr14, {1}
 170:	2f2e2e2f 	svccs	0x002e2e2f
 174:	2e2f2e2e 	cdpcs	14, 2, cr2, cr15, cr14, {1}
 178:	2e2e2f2e 	cdpcs	15, 2, cr2, cr14, cr14, {1}
 17c:	77656e2f 	strbvc	r6, [r5, -pc, lsr #28]!
 180:	2f62696c 	svccs	0x0062696c
 184:	6362696c 	cmnvs	r2, #108, 18	; 0x1b0000
 188:	7274732f 	rsbsvc	r7, r4, #-1140850688	; 0xbc000000
 18c:	2f676e69 	svccs	0x00676e69
 190:	736d656d 	cmnvc	sp, #457179136	; 0x1b400000
 194:	632e7465 			; <UNDEFINED> instruction: 0x632e7465
 198:	6f687300 	svcvs	0x00687300
 19c:	75207472 	strvc	r7, [r0, #-1138]!	; 0xfffffb8e
 1a0:	6769736e 	strbvs	r7, [r9, -lr, ror #6]!
 1a4:	2064656e 	rsbcs	r6, r4, lr, ror #10
 1a8:	00746e69 	rsbseq	r6, r4, r9, ror #28
 1ac:	6975622f 	ldmdbvs	r5!, {r0, r1, r2, r3, r5, r9, sp, lr}^
 1b0:	6e2f646c 	cdpvs	4, 2, cr6, cr15, cr12, {3}
 1b4:	696c7765 	stmdbvs	ip!, {r0, r2, r5, r6, r8, r9, sl, ip, sp, lr}^
 1b8:	42702d62 	rsbsmi	r2, r0, #6272	; 0x1880
 1bc:	65643033 	strbvs	r3, [r4, #-51]!	; 0xffffffcd
 1c0:	77656e2f 	strbvc	r6, [r5, -pc, lsr #28]!
 1c4:	2d62696c 			; <UNDEFINED> instruction: 0x2d62696c
 1c8:	2e332e33 	mrccs	14, 1, r2, cr3, cr3, {1}
 1cc:	75622f30 	strbvc	r2, [r2, #-3888]!	; 0xfffff0d0
 1d0:	2f646c69 	svccs	0x00646c69
 1d4:	2d6d7261 	sfmcs	f7, 2, [sp, #-388]!	; 0xfffffe7c
 1d8:	656e6f6e 	strbvs	r6, [lr, #-3950]!	; 0xfffff092
 1dc:	6261652d 	rsbvs	r6, r1, #188743680	; 0xb400000
 1e0:	68742f69 	ldmdavs	r4!, {r0, r3, r5, r6, r8, r9, sl, fp, sp}^
 1e4:	2f626d75 	svccs	0x00626d75
 1e8:	2d653776 	stclcs	7, cr3, [r5, #-472]!	; 0xfffffe28
 1ec:	70662b6d 	rsbvc	r2, r6, sp, ror #22
 1f0:	7261682f 	rsbvc	r6, r1, #3080192	; 0x2f0000
 1f4:	656e2f64 	strbvs	r2, [lr, #-3940]!	; 0xfffff09c
 1f8:	62696c77 	rsbvs	r6, r9, #30464	; 0x7700
 1fc:	62696c2f 	rsbvs	r6, r9, #12032	; 0x2f00
 200:	74732f63 	ldrbtvc	r2, [r3], #-3939	; 0xfffff09d
 204:	676e6972 			; <UNDEFINED> instruction: 0x676e6972
 208:	6e6f6c00 	cdpvs	12, 6, cr6, cr15, cr0, {0}
 20c:	6f642067 	svcvs	0x00642067
 210:	656c6275 	strbvs	r6, [ip, #-629]!	; 0xfffffd8b
 214:	6d656d00 	stclvs	13, cr6, [r5, #-0]
 218:	00746573 	rsbseq	r6, r4, r3, ror r5
 21c:	726f6873 	rsbvc	r6, pc, #7536640	; 0x730000
 220:	6e692074 	mcrvs	0, 3, r2, cr9, cr4, {3}
 224:	75620074 	strbvc	r0, [r2, #-116]!	; 0xffffff8c
 228:	72656666 	rsbvc	r6, r5, #106954752	; 0x6600000
	...

Disassembly of section .debug_frame:

00000000 <.debug_frame>:
   0:	0000000c 	andeq	r0, r0, ip
   4:	ffffffff 			; <UNDEFINED> instruction: 0xffffffff
   8:	7c020001 	stcvc	0, cr0, [r2], {1}
   c:	000d0c0e 	andeq	r0, sp, lr, lsl #24
  10:	0000001c 	andeq	r0, r0, ip, lsl r0
  14:	00000000 	andeq	r0, r0, r0
  18:	00000590 	muleq	r0, r0, r5
  1c:	00000282 	andeq	r0, r0, r2, lsl #5
  20:	0c0e470a 	stceq	7, cr4, [lr], {10}
  24:	02850384 	addeq	r0, r5, #132, 6	; 0x10000002
  28:	3a03018e 	bcc	c0668 <SPWMGenerator_GenerateSamples+0xbe4e8>
  2c:	00000b01 	andeq	r0, r0, r1, lsl #22
  30:	00000018 	andeq	r0, r0, r8, lsl r0
  34:	00000000 	andeq	r0, r0, r0
  38:	00000814 	andeq	r0, r0, r4, lsl r8
  3c:	0000001e 	andeq	r0, r0, lr, lsl r0
  40:	0c0e460a 	stceq	6, cr4, [lr], {10}
  44:	02850384 	addeq	r0, r5, #132, 6	; 0x10000002
  48:	0b49018e 	bleq	1240688 <SPWMGenerator_GenerateSamples+0x123e508>
  4c:	00000018 	andeq	r0, r0, r8, lsl r0
  50:	00000000 	andeq	r0, r0, r0
  54:	00000834 	andeq	r0, r0, r4, lsr r8
  58:	00000022 	andeq	r0, r0, r2, lsr #32
  5c:	0c0e460a 	stceq	6, cr4, [lr], {10}
  60:	02850384 	addeq	r0, r5, #132, 6	; 0x10000002
  64:	0b4b018e 	bleq	12c06a4 <SPWMGenerator_GenerateSamples+0x12be524>
  68:	00000018 	andeq	r0, r0, r8, lsl r0
  6c:	00000000 	andeq	r0, r0, r0
  70:	00000858 	andeq	r0, r0, r8, asr r8
  74:	00000042 	andeq	r0, r0, r2, asr #32
  78:	0c0e5a0a 			; <UNDEFINED> instruction: 0x0c0e5a0a
  7c:	02850384 	addeq	r0, r5, #132, 6	; 0x10000002
  80:	0b47018e 	bleq	11c06c0 <SPWMGenerator_GenerateSamples+0x11be540>
  84:	00000024 	andeq	r0, r0, r4, lsr #32
  88:	00000000 	andeq	r0, r0, r0
  8c:	0000089c 	muleq	r0, ip, r8
  90:	0000006a 	andeq	r0, r0, sl, rrx
  94:	0e450a0a 	vmlaeq.f32	s1, s10, s20
  98:	8503840c 	strhi	r8, [r3, #-1036]	; 0xfffffbf4
  9c:	43018e02 	movwmi	r8, #7682	; 0x1e02
  a0:	0c0e450b 	cfstr32eq	mvfx4, [lr], {11}
  a4:	02850384 	addeq	r0, r5, #132, 6	; 0x10000002
  a8:	0b68018e 	bleq	1a006e8 <SPWMGenerator_GenerateSamples+0x19fe568>
  ac:	0000000c 	andeq	r0, r0, ip
  b0:	ffffffff 			; <UNDEFINED> instruction: 0xffffffff
  b4:	7c020001 	stcvc	0, cr0, [r2], {1}
  b8:	000d0c0e 	andeq	r0, sp, lr, lsl #24
  bc:	00000018 	andeq	r0, r0, r8, lsl r0
  c0:	000000ac 	andeq	r0, r0, ip, lsr #1
  c4:	00000910 	andeq	r0, r0, r0, lsl r9
  c8:	000000a4 	andeq	r0, r0, r4, lsr #1
  cc:	840c0e42 	strhi	r0, [ip], #-3650	; 0xfffff1be
  d0:	8e028503 	cfsh32hi	mvfx8, mvfx2, #3
  d4:	00000001 	andeq	r0, r0, r1

Disassembly of section .debug_loc:

00000000 <.debug_loc>:
	...
   8:	00000001 	andeq	r0, r0, r1
   c:	01000000 	mrseq	r0, (UNDEF: 0)
  10:	00000001 	andeq	r0, r0, r1
  14:	00000000 	andeq	r0, r0, r0
  18:	00000008 	andeq	r0, r0, r8
  1c:	08520001 	ldmdaeq	r2, {r0}^
  20:	12000000 	andne	r0, r0, #0
  24:	01000000 	mrseq	r0, (UNDEF: 0)
  28:	00125400 	andseq	r5, r2, r0, lsl #8
  2c:	00140000 	andseq	r0, r4, r0
  30:	00030000 	andeq	r0, r3, r0
  34:	149f7f74 	ldrne	r7, [pc], #3956	; 3c <init+0x38>
  38:	16000000 	strne	r0, [r0], -r0
  3c:	01000000 	mrseq	r0, (UNDEF: 0)
  40:	00165400 	andseq	r5, r6, r0, lsl #8
  44:	001e0000 	andseq	r0, lr, r0
  48:	00030000 	andeq	r0, r3, r0
  4c:	649f7f74 	ldrvs	r7, [pc], #3956	; 54 <init+0x50>
  50:	66000000 	strvs	r0, [r0], -r0
  54:	01000000 	mrseq	r0, (UNDEF: 0)
  58:	008e5c00 	addeq	r5, lr, r0, lsl #24
  5c:	00920000 	addseq	r0, r2, r0
  60:	00010000 	andeq	r0, r1, r0
  64:	0000925c 	andeq	r9, r0, ip, asr r2
  68:	00009200 	andeq	r9, r0, r0, lsl #4
  6c:	54000100 	strpl	r0, [r0], #-256	; 0xffffff00
  70:	00000092 	muleq	r0, r2, r0
  74:	00000098 	muleq	r0, r8, r0
  78:	7f740003 	svcvc	0x00740003
  7c:	0000989f 	muleq	r0, pc, r8	; <UNPREDICTABLE>
  80:	00009e00 	andeq	r9, r0, r0, lsl #28
  84:	52000100 	andpl	r0, r0, #0, 2
	...
  90:	02000002 	andeq	r0, r0, #2
  94:	00000002 	andeq	r0, r0, r2
  98:	00010100 	andeq	r0, r1, r0, lsl #2
	...
  a8:	00120000 	andseq	r0, r2, r0
  ac:	00010000 	andeq	r0, r1, r0
  b0:	00001250 	andeq	r1, r0, r0, asr r2
  b4:	00001600 	andeq	r1, r0, r0, lsl #12
  b8:	53000100 	movwpl	r0, #256	; 0x100
  bc:	00000016 	andeq	r0, r0, r6, lsl r0
  c0:	0000001a 	andeq	r0, r0, sl, lsl r0
  c4:	01730003 	cmneq	r3, r3
  c8:	00001a9f 	muleq	r0, pc, sl	; <UNPREDICTABLE>
  cc:	00006a00 	andeq	r6, r0, r0, lsl #20
  d0:	53000100 	movwpl	r0, #256	; 0x100
  d4:	0000007e 	andeq	r0, r0, lr, ror r0
  d8:	00000084 	andeq	r0, r0, r4, lsl #1
  dc:	84530001 	ldrbhi	r0, [r3], #-1
  e0:	88000000 	stmdahi	r0, {}	; <UNPREDICTABLE>
  e4:	03000000 	movweq	r0, #0
  e8:	9f017300 	svcls	0x00017300
  ec:	00000088 	andeq	r0, r0, r8, lsl #1
  f0:	0000008c 	andeq	r0, r0, ip, lsl #1
  f4:	8e530001 	cdphi	0, 5, cr0, cr3, cr1, {0}
  f8:	96000000 	strls	r0, [r0], -r0
  fc:	01000000 	mrseq	r0, (UNDEF: 0)
 100:	00965300 	addseq	r5, r6, r0, lsl #6
 104:	00980000 	addseq	r0, r8, r0
 108:	00010000 	andeq	r0, r1, r0
 10c:	00009852 	andeq	r9, r0, r2, asr r8
 110:	00009e00 	andeq	r9, r0, r0, lsl #28
 114:	50000100 	andpl	r0, r0, r0, lsl #2
 118:	0000009e 	muleq	r0, lr, r0
 11c:	000000a4 	andeq	r0, r0, r4, lsr #1
 120:	00530001 	subseq	r0, r3, r1
 124:	00000000 	andeq	r0, r0, r0
 128:	01000000 	mrseq	r0, (UNDEF: 0)
 12c:	00000000 	andeq	r0, r0, r0
 130:	00002e00 	andeq	r2, r0, r0, lsl #28
 134:	00007e00 	andeq	r7, r0, r0, lsl #28
 138:	08000300 	stmdaeq	r0, {r8, r9}
 13c:	008e9f20 	addeq	r9, lr, r0, lsr #30
 140:	00980000 	addseq	r0, r8, r0
 144:	00030000 	andeq	r0, r3, r0
 148:	9e9f2008 	cdpls	0, 9, cr2, cr15, cr8, {0}
 14c:	a4000000 	strge	r0, [r0], #-0
 150:	03000000 	movweq	r0, #0
 154:	9f200800 	svcls	0x00200800
	...
 164:	00280000 	eoreq	r0, r8, r0
 168:	007e0000 	rsbseq	r0, lr, r0
 16c:	00010000 	andeq	r0, r1, r0
 170:	00008e55 	andeq	r8, r0, r5, asr lr
 174:	00009800 	andeq	r9, r0, r0, lsl #16
 178:	55000100 	strpl	r0, [r0, #-256]	; 0xffffff00
 17c:	0000009e 	muleq	r0, lr, r0
 180:	000000a4 	andeq	r0, r0, r4, lsr #1
 184:	00550001 	subseq	r0, r5, r1
 188:	00000000 	andeq	r0, r0, r0
 18c:	01000000 	mrseq	r0, (UNDEF: 0)
 190:	01010100 	mrseq	r0, (UNDEF: 17)
 194:	00000001 	andeq	r0, r0, r1
 198:	00000101 	andeq	r0, r0, r1, lsl #2
 19c:	00000000 	andeq	r0, r0, r0
 1a0:	00002400 	andeq	r2, r0, r0, lsl #8
 1a4:	00004600 	andeq	r4, r0, r0, lsl #12
 1a8:	53000100 	movwpl	r0, #256	; 0x100
 1ac:	00000046 	andeq	r0, r0, r6, asr #32
 1b0:	0000004a 	andeq	r0, r0, sl, asr #32
 1b4:	74720003 	ldrbtvc	r0, [r2], #-3
 1b8:	00004a9f 	muleq	r0, pc, sl	; <UNPREDICTABLE>
 1bc:	00004e00 	andeq	r4, r0, r0, lsl #28
 1c0:	72000300 	andvc	r0, r0, #0, 6
 1c4:	00649f7c 	rsbeq	r9, r4, ip, ror pc
 1c8:	00660000 	rsbeq	r0, r6, r0
 1cc:	00010000 	andeq	r0, r1, r0
 1d0:	00007252 	andeq	r7, r0, r2, asr r2
 1d4:	00007200 	andeq	r7, r0, r0, lsl #4
 1d8:	52000100 	andpl	r0, r0, #0, 2
 1dc:	00000072 	andeq	r0, r0, r2, ror r0
 1e0:	00000076 	andeq	r0, r0, r6, ror r0
 1e4:	04720003 	ldrbteq	r0, [r2], #-3
 1e8:	0000769f 	muleq	r0, pc, r6	; <UNPREDICTABLE>
 1ec:	00007e00 	andeq	r7, r0, r0, lsl #28
 1f0:	52000100 	andpl	r0, r0, #0, 2
 1f4:	0000008e 	andeq	r0, r0, lr, lsl #1
 1f8:	00000098 	muleq	r0, r8, r0
 1fc:	9e520001 	cdpls	0, 5, cr0, cr2, cr1, {0}
 200:	a4000000 	strge	r0, [r0], #-0
 204:	01000000 	mrseq	r0, (UNDEF: 0)
 208:	00005300 	andeq	r5, r0, r0, lsl #6
 20c:	00000000 	andeq	r0, r0, r0
 210:	00060000 	andeq	r0, r6, r0
 214:	00000000 	andeq	r0, r0, r0
 218:	000000a4 	andeq	r0, r0, r4, lsr #1
 21c:	00710006 	rsbseq	r0, r1, r6
 220:	9f1aff08 	svcls	0x001aff08
	...
